
ctarget:     file format elf64-x86-64


Disassembly of section .init:

0000000000000e40 <_init>:
 e40:	48 83 ec 08          	sub    $0x8,%rsp
 e44:	48 8b 05 9d 41 20 00 	mov    0x20419d(%rip),%rax        # 204fe8 <__gmon_start__>
 e4b:	48 85 c0             	test   %rax,%rax
 e4e:	74 02                	je     e52 <_init+0x12>
 e50:	ff d0                	callq  *%rax
 e52:	48 83 c4 08          	add    $0x8,%rsp
 e56:	c3                   	retq   

Disassembly of section .plt:

0000000000000e60 <.plt>:
     e60:	ff 35 5a 40 20 00    	pushq  0x20405a(%rip)        # 204ec0 <_GLOBAL_OFFSET_TABLE_+0x8>
     e66:	ff 25 5c 40 20 00    	jmpq   *0x20405c(%rip)        # 204ec8 <_GLOBAL_OFFSET_TABLE_+0x10>
     e6c:	0f 1f 40 00          	nopl   0x0(%rax)

0000000000000e70 <strcasecmp@plt>:
     e70:	ff 25 5a 40 20 00    	jmpq   *0x20405a(%rip)        # 204ed0 <strcasecmp@GLIBC_2.2.5>
     e76:	68 00 00 00 00       	pushq  $0x0
     e7b:	e9 e0 ff ff ff       	jmpq   e60 <.plt>

0000000000000e80 <__errno_location@plt>:
     e80:	ff 25 52 40 20 00    	jmpq   *0x204052(%rip)        # 204ed8 <__errno_location@GLIBC_2.2.5>
     e86:	68 01 00 00 00       	pushq  $0x1
     e8b:	e9 d0 ff ff ff       	jmpq   e60 <.plt>

0000000000000e90 <srandom@plt>:
     e90:	ff 25 4a 40 20 00    	jmpq   *0x20404a(%rip)        # 204ee0 <srandom@GLIBC_2.2.5>
     e96:	68 02 00 00 00       	pushq  $0x2
     e9b:	e9 c0 ff ff ff       	jmpq   e60 <.plt>

0000000000000ea0 <strncmp@plt>:
     ea0:	ff 25 42 40 20 00    	jmpq   *0x204042(%rip)        # 204ee8 <strncmp@GLIBC_2.2.5>
     ea6:	68 03 00 00 00       	pushq  $0x3
     eab:	e9 b0 ff ff ff       	jmpq   e60 <.plt>

0000000000000eb0 <strcpy@plt>:
     eb0:	ff 25 3a 40 20 00    	jmpq   *0x20403a(%rip)        # 204ef0 <strcpy@GLIBC_2.2.5>
     eb6:	68 04 00 00 00       	pushq  $0x4
     ebb:	e9 a0 ff ff ff       	jmpq   e60 <.plt>

0000000000000ec0 <puts@plt>:
     ec0:	ff 25 32 40 20 00    	jmpq   *0x204032(%rip)        # 204ef8 <puts@GLIBC_2.2.5>
     ec6:	68 05 00 00 00       	pushq  $0x5
     ecb:	e9 90 ff ff ff       	jmpq   e60 <.plt>

0000000000000ed0 <write@plt>:
     ed0:	ff 25 2a 40 20 00    	jmpq   *0x20402a(%rip)        # 204f00 <write@GLIBC_2.2.5>
     ed6:	68 06 00 00 00       	pushq  $0x6
     edb:	e9 80 ff ff ff       	jmpq   e60 <.plt>

0000000000000ee0 <__stack_chk_fail@plt>:
     ee0:	ff 25 22 40 20 00    	jmpq   *0x204022(%rip)        # 204f08 <__stack_chk_fail@GLIBC_2.4>
     ee6:	68 07 00 00 00       	pushq  $0x7
     eeb:	e9 70 ff ff ff       	jmpq   e60 <.plt>

0000000000000ef0 <mmap@plt>:
     ef0:	ff 25 1a 40 20 00    	jmpq   *0x20401a(%rip)        # 204f10 <mmap@GLIBC_2.2.5>
     ef6:	68 08 00 00 00       	pushq  $0x8
     efb:	e9 60 ff ff ff       	jmpq   e60 <.plt>

0000000000000f00 <memset@plt>:
     f00:	ff 25 12 40 20 00    	jmpq   *0x204012(%rip)        # 204f18 <memset@GLIBC_2.2.5>
     f06:	68 09 00 00 00       	pushq  $0x9
     f0b:	e9 50 ff ff ff       	jmpq   e60 <.plt>

0000000000000f10 <alarm@plt>:
     f10:	ff 25 0a 40 20 00    	jmpq   *0x20400a(%rip)        # 204f20 <alarm@GLIBC_2.2.5>
     f16:	68 0a 00 00 00       	pushq  $0xa
     f1b:	e9 40 ff ff ff       	jmpq   e60 <.plt>

0000000000000f20 <close@plt>:
     f20:	ff 25 02 40 20 00    	jmpq   *0x204002(%rip)        # 204f28 <close@GLIBC_2.2.5>
     f26:	68 0b 00 00 00       	pushq  $0xb
     f2b:	e9 30 ff ff ff       	jmpq   e60 <.plt>

0000000000000f30 <read@plt>:
     f30:	ff 25 fa 3f 20 00    	jmpq   *0x203ffa(%rip)        # 204f30 <read@GLIBC_2.2.5>
     f36:	68 0c 00 00 00       	pushq  $0xc
     f3b:	e9 20 ff ff ff       	jmpq   e60 <.plt>

0000000000000f40 <signal@plt>:
     f40:	ff 25 f2 3f 20 00    	jmpq   *0x203ff2(%rip)        # 204f38 <signal@GLIBC_2.2.5>
     f46:	68 0d 00 00 00       	pushq  $0xd
     f4b:	e9 10 ff ff ff       	jmpq   e60 <.plt>

0000000000000f50 <gethostbyname@plt>:
     f50:	ff 25 ea 3f 20 00    	jmpq   *0x203fea(%rip)        # 204f40 <gethostbyname@GLIBC_2.2.5>
     f56:	68 0e 00 00 00       	pushq  $0xe
     f5b:	e9 00 ff ff ff       	jmpq   e60 <.plt>

0000000000000f60 <__memmove_chk@plt>:
     f60:	ff 25 e2 3f 20 00    	jmpq   *0x203fe2(%rip)        # 204f48 <__memmove_chk@GLIBC_2.3.4>
     f66:	68 0f 00 00 00       	pushq  $0xf
     f6b:	e9 f0 fe ff ff       	jmpq   e60 <.plt>

0000000000000f70 <strtol@plt>:
     f70:	ff 25 da 3f 20 00    	jmpq   *0x203fda(%rip)        # 204f50 <strtol@GLIBC_2.2.5>
     f76:	68 10 00 00 00       	pushq  $0x10
     f7b:	e9 e0 fe ff ff       	jmpq   e60 <.plt>

0000000000000f80 <memcpy@plt>:
     f80:	ff 25 d2 3f 20 00    	jmpq   *0x203fd2(%rip)        # 204f58 <memcpy@GLIBC_2.14>
     f86:	68 11 00 00 00       	pushq  $0x11
     f8b:	e9 d0 fe ff ff       	jmpq   e60 <.plt>

0000000000000f90 <time@plt>:
     f90:	ff 25 ca 3f 20 00    	jmpq   *0x203fca(%rip)        # 204f60 <time@GLIBC_2.2.5>
     f96:	68 12 00 00 00       	pushq  $0x12
     f9b:	e9 c0 fe ff ff       	jmpq   e60 <.plt>

0000000000000fa0 <random@plt>:
     fa0:	ff 25 c2 3f 20 00    	jmpq   *0x203fc2(%rip)        # 204f68 <random@GLIBC_2.2.5>
     fa6:	68 13 00 00 00       	pushq  $0x13
     fab:	e9 b0 fe ff ff       	jmpq   e60 <.plt>

0000000000000fb0 <_IO_getc@plt>:
     fb0:	ff 25 ba 3f 20 00    	jmpq   *0x203fba(%rip)        # 204f70 <_IO_getc@GLIBC_2.2.5>
     fb6:	68 14 00 00 00       	pushq  $0x14
     fbb:	e9 a0 fe ff ff       	jmpq   e60 <.plt>

0000000000000fc0 <__isoc99_sscanf@plt>:
     fc0:	ff 25 b2 3f 20 00    	jmpq   *0x203fb2(%rip)        # 204f78 <__isoc99_sscanf@GLIBC_2.7>
     fc6:	68 15 00 00 00       	pushq  $0x15
     fcb:	e9 90 fe ff ff       	jmpq   e60 <.plt>

0000000000000fd0 <munmap@plt>:
     fd0:	ff 25 aa 3f 20 00    	jmpq   *0x203faa(%rip)        # 204f80 <munmap@GLIBC_2.2.5>
     fd6:	68 16 00 00 00       	pushq  $0x16
     fdb:	e9 80 fe ff ff       	jmpq   e60 <.plt>

0000000000000fe0 <__printf_chk@plt>:
     fe0:	ff 25 a2 3f 20 00    	jmpq   *0x203fa2(%rip)        # 204f88 <__printf_chk@GLIBC_2.3.4>
     fe6:	68 17 00 00 00       	pushq  $0x17
     feb:	e9 70 fe ff ff       	jmpq   e60 <.plt>

0000000000000ff0 <fopen@plt>:
     ff0:	ff 25 9a 3f 20 00    	jmpq   *0x203f9a(%rip)        # 204f90 <fopen@GLIBC_2.2.5>
     ff6:	68 18 00 00 00       	pushq  $0x18
     ffb:	e9 60 fe ff ff       	jmpq   e60 <.plt>

0000000000001000 <getopt@plt>:
    1000:	ff 25 92 3f 20 00    	jmpq   *0x203f92(%rip)        # 204f98 <getopt@GLIBC_2.2.5>
    1006:	68 19 00 00 00       	pushq  $0x19
    100b:	e9 50 fe ff ff       	jmpq   e60 <.plt>

0000000000001010 <strtoul@plt>:
    1010:	ff 25 8a 3f 20 00    	jmpq   *0x203f8a(%rip)        # 204fa0 <strtoul@GLIBC_2.2.5>
    1016:	68 1a 00 00 00       	pushq  $0x1a
    101b:	e9 40 fe ff ff       	jmpq   e60 <.plt>

0000000000001020 <gethostname@plt>:
    1020:	ff 25 82 3f 20 00    	jmpq   *0x203f82(%rip)        # 204fa8 <gethostname@GLIBC_2.2.5>
    1026:	68 1b 00 00 00       	pushq  $0x1b
    102b:	e9 30 fe ff ff       	jmpq   e60 <.plt>

0000000000001030 <exit@plt>:
    1030:	ff 25 7a 3f 20 00    	jmpq   *0x203f7a(%rip)        # 204fb0 <exit@GLIBC_2.2.5>
    1036:	68 1c 00 00 00       	pushq  $0x1c
    103b:	e9 20 fe ff ff       	jmpq   e60 <.plt>

0000000000001040 <connect@plt>:
    1040:	ff 25 72 3f 20 00    	jmpq   *0x203f72(%rip)        # 204fb8 <connect@GLIBC_2.2.5>
    1046:	68 1d 00 00 00       	pushq  $0x1d
    104b:	e9 10 fe ff ff       	jmpq   e60 <.plt>

0000000000001050 <__fprintf_chk@plt>:
    1050:	ff 25 6a 3f 20 00    	jmpq   *0x203f6a(%rip)        # 204fc0 <__fprintf_chk@GLIBC_2.3.4>
    1056:	68 1e 00 00 00       	pushq  $0x1e
    105b:	e9 00 fe ff ff       	jmpq   e60 <.plt>

0000000000001060 <__sprintf_chk@plt>:
    1060:	ff 25 62 3f 20 00    	jmpq   *0x203f62(%rip)        # 204fc8 <__sprintf_chk@GLIBC_2.3.4>
    1066:	68 1f 00 00 00       	pushq  $0x1f
    106b:	e9 f0 fd ff ff       	jmpq   e60 <.plt>

0000000000001070 <socket@plt>:
    1070:	ff 25 5a 3f 20 00    	jmpq   *0x203f5a(%rip)        # 204fd0 <socket@GLIBC_2.2.5>
    1076:	68 20 00 00 00       	pushq  $0x20
    107b:	e9 e0 fd ff ff       	jmpq   e60 <.plt>

Disassembly of section .plt.got:

0000000000001080 <__cxa_finalize@plt>:
    1080:	ff 25 72 3f 20 00    	jmpq   *0x203f72(%rip)        # 204ff8 <__cxa_finalize@GLIBC_2.2.5>
    1086:	66 90                	xchg   %ax,%ax

Disassembly of section .text:

0000000000001090 <_start>:
    1090:	31 ed                	xor    %ebp,%ebp
    1092:	49 89 d1             	mov    %rdx,%r9
    1095:	5e                   	pop    %rsi
    1096:	48 89 e2             	mov    %rsp,%rdx
    1099:	48 83 e4 f0          	and    $0xfffffffffffffff0,%rsp
    109d:	50                   	push   %rax
    109e:	54                   	push   %rsp
    109f:	4c 8d 05 9a 20 00 00 	lea    0x209a(%rip),%r8        # 3140 <__libc_csu_fini>
    10a6:	48 8d 0d 23 20 00 00 	lea    0x2023(%rip),%rcx        # 30d0 <__libc_csu_init>
    10ad:	48 8d 3d 0d 03 00 00 	lea    0x30d(%rip),%rdi        # 13c1 <main>
    10b4:	ff 15 26 3f 20 00    	callq  *0x203f26(%rip)        # 204fe0 <__libc_start_main@GLIBC_2.2.5>
    10ba:	f4                   	hlt    
    10bb:	0f 1f 44 00 00       	nopl   0x0(%rax,%rax,1)

00000000000010c0 <deregister_tm_clones>:
    10c0:	48 8d 3d a9 42 20 00 	lea    0x2042a9(%rip),%rdi        # 205370 <__TMC_END__>
    10c7:	55                   	push   %rbp
    10c8:	48 8d 05 a1 42 20 00 	lea    0x2042a1(%rip),%rax        # 205370 <__TMC_END__>
    10cf:	48 39 f8             	cmp    %rdi,%rax
    10d2:	48 89 e5             	mov    %rsp,%rbp
    10d5:	74 19                	je     10f0 <deregister_tm_clones+0x30>
    10d7:	48 8b 05 fa 3e 20 00 	mov    0x203efa(%rip),%rax        # 204fd8 <_ITM_deregisterTMCloneTable>
    10de:	48 85 c0             	test   %rax,%rax
    10e1:	74 0d                	je     10f0 <deregister_tm_clones+0x30>
    10e3:	5d                   	pop    %rbp
    10e4:	ff e0                	jmpq   *%rax
    10e6:	66 2e 0f 1f 84 00 00 	nopw   %cs:0x0(%rax,%rax,1)
    10ed:	00 00 00 
    10f0:	5d                   	pop    %rbp
    10f1:	c3                   	retq   
    10f2:	0f 1f 40 00          	nopl   0x0(%rax)
    10f6:	66 2e 0f 1f 84 00 00 	nopw   %cs:0x0(%rax,%rax,1)
    10fd:	00 00 00 

0000000000001100 <register_tm_clones>:
    1100:	48 8d 3d 69 42 20 00 	lea    0x204269(%rip),%rdi        # 205370 <__TMC_END__>
    1107:	48 8d 35 62 42 20 00 	lea    0x204262(%rip),%rsi        # 205370 <__TMC_END__>
    110e:	55                   	push   %rbp
    110f:	48 29 fe             	sub    %rdi,%rsi
    1112:	48 89 e5             	mov    %rsp,%rbp
    1115:	48 c1 fe 03          	sar    $0x3,%rsi
    1119:	48 89 f0             	mov    %rsi,%rax
    111c:	48 c1 e8 3f          	shr    $0x3f,%rax
    1120:	48 01 c6             	add    %rax,%rsi
    1123:	48 d1 fe             	sar    %rsi
    1126:	74 18                	je     1140 <register_tm_clones+0x40>
    1128:	48 8b 05 c1 3e 20 00 	mov    0x203ec1(%rip),%rax        # 204ff0 <_ITM_registerTMCloneTable>
    112f:	48 85 c0             	test   %rax,%rax
    1132:	74 0c                	je     1140 <register_tm_clones+0x40>
    1134:	5d                   	pop    %rbp
    1135:	ff e0                	jmpq   *%rax
    1137:	66 0f 1f 84 00 00 00 	nopw   0x0(%rax,%rax,1)
    113e:	00 00 
    1140:	5d                   	pop    %rbp
    1141:	c3                   	retq   
    1142:	0f 1f 40 00          	nopl   0x0(%rax)
    1146:	66 2e 0f 1f 84 00 00 	nopw   %cs:0x0(%rax,%rax,1)
    114d:	00 00 00 

0000000000001150 <__do_global_dtors_aux>:
    1150:	80 3d 51 42 20 00 00 	cmpb   $0x0,0x204251(%rip)        # 2053a8 <completed.7696>
    1157:	75 2f                	jne    1188 <__do_global_dtors_aux+0x38>
    1159:	48 83 3d 97 3e 20 00 	cmpq   $0x0,0x203e97(%rip)        # 204ff8 <__cxa_finalize@GLIBC_2.2.5>
    1160:	00 
    1161:	55                   	push   %rbp
    1162:	48 89 e5             	mov    %rsp,%rbp
    1165:	74 0c                	je     1173 <__do_global_dtors_aux+0x23>
    1167:	48 8b 3d 9a 3e 20 00 	mov    0x203e9a(%rip),%rdi        # 205008 <__dso_handle>
    116e:	e8 0d ff ff ff       	callq  1080 <__cxa_finalize@plt>
    1173:	e8 48 ff ff ff       	callq  10c0 <deregister_tm_clones>
    1178:	c6 05 29 42 20 00 01 	movb   $0x1,0x204229(%rip)        # 2053a8 <completed.7696>
    117f:	5d                   	pop    %rbp
    1180:	c3                   	retq   
    1181:	0f 1f 80 00 00 00 00 	nopl   0x0(%rax)
    1188:	f3 c3                	repz retq 
    118a:	66 0f 1f 44 00 00    	nopw   0x0(%rax,%rax,1)

0000000000001190 <frame_dummy>:
    1190:	55                   	push   %rbp
    1191:	48 89 e5             	mov    %rsp,%rbp
    1194:	5d                   	pop    %rbp
    1195:	e9 66 ff ff ff       	jmpq   1100 <register_tm_clones>

000000000000119a <usage>:
    119a:	48 83 ec 08          	sub    $0x8,%rsp
    119e:	48 89 fa             	mov    %rdi,%rdx
    11a1:	83 3d 40 42 20 00 00 	cmpl   $0x0,0x204240(%rip)        # 2053e8 <is_checker>
    11a8:	74 50                	je     11fa <usage+0x60>
    11aa:	48 8d 35 a7 1f 00 00 	lea    0x1fa7(%rip),%rsi        # 3158 <_IO_stdin_used+0x8>
    11b1:	bf 01 00 00 00       	mov    $0x1,%edi
    11b6:	b8 00 00 00 00       	mov    $0x0,%eax
    11bb:	e8 20 fe ff ff       	callq  fe0 <__printf_chk@plt>
    11c0:	48 8d 3d c9 1f 00 00 	lea    0x1fc9(%rip),%rdi        # 3190 <_IO_stdin_used+0x40>
    11c7:	e8 f4 fc ff ff       	callq  ec0 <puts@plt>
    11cc:	48 8d 3d 35 21 00 00 	lea    0x2135(%rip),%rdi        # 3308 <_IO_stdin_used+0x1b8>
    11d3:	e8 e8 fc ff ff       	callq  ec0 <puts@plt>
    11d8:	48 8d 3d d9 1f 00 00 	lea    0x1fd9(%rip),%rdi        # 31b8 <_IO_stdin_used+0x68>
    11df:	e8 dc fc ff ff       	callq  ec0 <puts@plt>
    11e4:	48 8d 3d 37 21 00 00 	lea    0x2137(%rip),%rdi        # 3322 <_IO_stdin_used+0x1d2>
    11eb:	e8 d0 fc ff ff       	callq  ec0 <puts@plt>
    11f0:	bf 00 00 00 00       	mov    $0x0,%edi
    11f5:	e8 36 fe ff ff       	callq  1030 <exit@plt>
    11fa:	48 8d 35 3d 21 00 00 	lea    0x213d(%rip),%rsi        # 333e <_IO_stdin_used+0x1ee>
    1201:	bf 01 00 00 00       	mov    $0x1,%edi
    1206:	b8 00 00 00 00       	mov    $0x0,%eax
    120b:	e8 d0 fd ff ff       	callq  fe0 <__printf_chk@plt>
    1210:	48 8d 3d c9 1f 00 00 	lea    0x1fc9(%rip),%rdi        # 31e0 <_IO_stdin_used+0x90>
    1217:	e8 a4 fc ff ff       	callq  ec0 <puts@plt>
    121c:	48 8d 3d e5 1f 00 00 	lea    0x1fe5(%rip),%rdi        # 3208 <_IO_stdin_used+0xb8>
    1223:	e8 98 fc ff ff       	callq  ec0 <puts@plt>
    1228:	48 8d 3d 2d 21 00 00 	lea    0x212d(%rip),%rdi        # 335c <_IO_stdin_used+0x20c>
    122f:	e8 8c fc ff ff       	callq  ec0 <puts@plt>
    1234:	eb ba                	jmp    11f0 <usage+0x56>

0000000000001236 <initialize_target>:
    1236:	55                   	push   %rbp
    1237:	53                   	push   %rbx
    1238:	48 81 ec 18 21 00 00 	sub    $0x2118,%rsp
    123f:	89 f5                	mov    %esi,%ebp
    1241:	64 48 8b 04 25 28 00 	mov    %fs:0x28,%rax
    1248:	00 00 
    124a:	48 89 84 24 08 21 00 	mov    %rax,0x2108(%rsp)
    1251:	00 
    1252:	31 c0                	xor    %eax,%eax
    1254:	89 3d 7e 41 20 00    	mov    %edi,0x20417e(%rip)        # 2053d8 <check_level>
    125a:	8b 3d b0 3d 20 00    	mov    0x203db0(%rip),%edi        # 205010 <target_id>
    1260:	e8 49 1e 00 00       	callq  30ae <gencookie>
    1265:	89 05 79 41 20 00    	mov    %eax,0x204179(%rip)        # 2053e4 <cookie>
    126b:	89 c7                	mov    %eax,%edi
    126d:	e8 3c 1e 00 00       	callq  30ae <gencookie>
    1272:	89 05 68 41 20 00    	mov    %eax,0x204168(%rip)        # 2053e0 <authkey>
    1278:	8b 05 92 3d 20 00    	mov    0x203d92(%rip),%eax        # 205010 <target_id>
    127e:	8d 78 01             	lea    0x1(%rax),%edi
    1281:	e8 0a fc ff ff       	callq  e90 <srandom@plt>
    1286:	e8 15 fd ff ff       	callq  fa0 <random@plt>
    128b:	89 c7                	mov    %eax,%edi
    128d:	e8 1a 03 00 00       	callq  15ac <scramble>
    1292:	89 c3                	mov    %eax,%ebx
    1294:	85 ed                	test   %ebp,%ebp
    1296:	75 54                	jne    12ec <initialize_target+0xb6>
    1298:	b8 00 00 00 00       	mov    $0x0,%eax
    129d:	01 d8                	add    %ebx,%eax
    129f:	0f b7 c0             	movzwl %ax,%eax
    12a2:	8d 04 c5 00 01 00 00 	lea    0x100(,%rax,8),%eax
    12a9:	89 c0                	mov    %eax,%eax
    12ab:	48 89 05 ae 40 20 00 	mov    %rax,0x2040ae(%rip)        # 205360 <buf_offset>
    12b2:	c6 05 4f 4d 20 00 63 	movb   $0x63,0x204d4f(%rip)        # 206008 <target_prefix>
    12b9:	83 3d a8 40 20 00 00 	cmpl   $0x0,0x2040a8(%rip)        # 205368 <notify>
    12c0:	74 09                	je     12cb <initialize_target+0x95>
    12c2:	83 3d 1f 41 20 00 00 	cmpl   $0x0,0x20411f(%rip)        # 2053e8 <is_checker>
    12c9:	74 39                	je     1304 <initialize_target+0xce>
    12cb:	48 8b 84 24 08 21 00 	mov    0x2108(%rsp),%rax
    12d2:	00 
    12d3:	64 48 33 04 25 28 00 	xor    %fs:0x28,%rax
    12da:	00 00 
    12dc:	0f 85 da 00 00 00    	jne    13bc <initialize_target+0x186>
    12e2:	48 81 c4 18 21 00 00 	add    $0x2118,%rsp
    12e9:	5b                   	pop    %rbx
    12ea:	5d                   	pop    %rbp
    12eb:	c3                   	retq   
    12ec:	bf 00 00 00 00       	mov    $0x0,%edi
    12f1:	e8 9a fc ff ff       	callq  f90 <time@plt>
    12f6:	89 c7                	mov    %eax,%edi
    12f8:	e8 93 fb ff ff       	callq  e90 <srandom@plt>
    12fd:	e8 9e fc ff ff       	callq  fa0 <random@plt>
    1302:	eb 99                	jmp    129d <initialize_target+0x67>
    1304:	48 89 e7             	mov    %rsp,%rdi
    1307:	be 00 01 00 00       	mov    $0x100,%esi
    130c:	e8 0f fd ff ff       	callq  1020 <gethostname@plt>
    1311:	89 c5                	mov    %eax,%ebp
    1313:	85 c0                	test   %eax,%eax
    1315:	75 26                	jne    133d <initialize_target+0x107>
    1317:	89 c3                	mov    %eax,%ebx
    1319:	48 63 c3             	movslq %ebx,%rax
    131c:	48 8d 15 1d 3d 20 00 	lea    0x203d1d(%rip),%rdx        # 205040 <host_table>
    1323:	48 8b 3c c2          	mov    (%rdx,%rax,8),%rdi
    1327:	48 85 ff             	test   %rdi,%rdi
    132a:	74 2c                	je     1358 <initialize_target+0x122>
    132c:	48 89 e6             	mov    %rsp,%rsi
    132f:	e8 3c fb ff ff       	callq  e70 <strcasecmp@plt>
    1334:	85 c0                	test   %eax,%eax
    1336:	74 1b                	je     1353 <initialize_target+0x11d>
    1338:	83 c3 01             	add    $0x1,%ebx
    133b:	eb dc                	jmp    1319 <initialize_target+0xe3>
    133d:	48 8d 3d f4 1e 00 00 	lea    0x1ef4(%rip),%rdi        # 3238 <_IO_stdin_used+0xe8>
    1344:	e8 77 fb ff ff       	callq  ec0 <puts@plt>
    1349:	bf 08 00 00 00       	mov    $0x8,%edi
    134e:	e8 dd fc ff ff       	callq  1030 <exit@plt>
    1353:	bd 01 00 00 00       	mov    $0x1,%ebp
    1358:	85 ed                	test   %ebp,%ebp
    135a:	74 3d                	je     1399 <initialize_target+0x163>
    135c:	48 8d bc 24 00 01 00 	lea    0x100(%rsp),%rdi
    1363:	00 
    1364:	e8 75 1a 00 00       	callq  2dde <init_driver>
    1369:	85 c0                	test   %eax,%eax
    136b:	0f 89 5a ff ff ff    	jns    12cb <initialize_target+0x95>
    1371:	48 8d 94 24 00 01 00 	lea    0x100(%rsp),%rdx
    1378:	00 
    1379:	48 8d 35 30 1f 00 00 	lea    0x1f30(%rip),%rsi        # 32b0 <_IO_stdin_used+0x160>
    1380:	bf 01 00 00 00       	mov    $0x1,%edi
    1385:	b8 00 00 00 00       	mov    $0x0,%eax
    138a:	e8 51 fc ff ff       	callq  fe0 <__printf_chk@plt>
    138f:	bf 08 00 00 00       	mov    $0x8,%edi
    1394:	e8 97 fc ff ff       	callq  1030 <exit@plt>
    1399:	48 89 e2             	mov    %rsp,%rdx
    139c:	48 8d 35 cd 1e 00 00 	lea    0x1ecd(%rip),%rsi        # 3270 <_IO_stdin_used+0x120>
    13a3:	bf 01 00 00 00       	mov    $0x1,%edi
    13a8:	b8 00 00 00 00       	mov    $0x0,%eax
    13ad:	e8 2e fc ff ff       	callq  fe0 <__printf_chk@plt>
    13b2:	bf 08 00 00 00       	mov    $0x8,%edi
    13b7:	e8 74 fc ff ff       	callq  1030 <exit@plt>
    13bc:	e8 1f fb ff ff       	callq  ee0 <__stack_chk_fail@plt>

00000000000013c1 <main>:
    13c1:	41 56                	push   %r14
    13c3:	41 55                	push   %r13
    13c5:	41 54                	push   %r12
    13c7:	55                   	push   %rbp
    13c8:	53                   	push   %rbx
    13c9:	41 89 fc             	mov    %edi,%r12d
    13cc:	48 89 f3             	mov    %rsi,%rbx
    13cf:	48 8d 35 0f 0d 00 00 	lea    0xd0f(%rip),%rsi        # 20e5 <seghandler>
    13d6:	bf 0b 00 00 00       	mov    $0xb,%edi
    13db:	e8 60 fb ff ff       	callq  f40 <signal@plt>
    13e0:	48 8d 35 aa 0c 00 00 	lea    0xcaa(%rip),%rsi        # 2091 <bushandler>
    13e7:	bf 07 00 00 00       	mov    $0x7,%edi
    13ec:	e8 4f fb ff ff       	callq  f40 <signal@plt>
    13f1:	48 8d 35 41 0d 00 00 	lea    0xd41(%rip),%rsi        # 2139 <illegalhandler>
    13f8:	bf 04 00 00 00       	mov    $0x4,%edi
    13fd:	e8 3e fb ff ff       	callq  f40 <signal@plt>
    1402:	83 3d df 3f 20 00 00 	cmpl   $0x0,0x203fdf(%rip)        # 2053e8 <is_checker>
    1409:	75 26                	jne    1431 <main+0x70>
    140b:	48 8d 2d 63 1f 00 00 	lea    0x1f63(%rip),%rbp        # 3375 <_IO_stdin_used+0x225>
    1412:	48 8b 05 67 3f 20 00 	mov    0x203f67(%rip),%rax        # 205380 <stdin@@GLIBC_2.2.5>
    1419:	48 89 05 b0 3f 20 00 	mov    %rax,0x203fb0(%rip)        # 2053d0 <infile>
    1420:	41 bd 00 00 00 00    	mov    $0x0,%r13d
    1426:	41 be 00 00 00 00    	mov    $0x0,%r14d
    142c:	e9 8d 00 00 00       	jmpq   14be <main+0xfd>
    1431:	48 8d 35 55 0d 00 00 	lea    0xd55(%rip),%rsi        # 218d <sigalrmhandler>
    1438:	bf 0e 00 00 00       	mov    $0xe,%edi
    143d:	e8 fe fa ff ff       	callq  f40 <signal@plt>
    1442:	bf 05 00 00 00       	mov    $0x5,%edi
    1447:	e8 c4 fa ff ff       	callq  f10 <alarm@plt>
    144c:	48 8d 2d 27 1f 00 00 	lea    0x1f27(%rip),%rbp        # 337a <_IO_stdin_used+0x22a>
    1453:	eb bd                	jmp    1412 <main+0x51>
    1455:	48 8b 3b             	mov    (%rbx),%rdi
    1458:	e8 3d fd ff ff       	callq  119a <usage>
    145d:	48 8d 35 d1 21 00 00 	lea    0x21d1(%rip),%rsi        # 3635 <_IO_stdin_used+0x4e5>
    1464:	48 8b 3d 1d 3f 20 00 	mov    0x203f1d(%rip),%rdi        # 205388 <optarg@@GLIBC_2.2.5>
    146b:	e8 80 fb ff ff       	callq  ff0 <fopen@plt>
    1470:	48 89 05 59 3f 20 00 	mov    %rax,0x203f59(%rip)        # 2053d0 <infile>
    1477:	48 85 c0             	test   %rax,%rax
    147a:	75 42                	jne    14be <main+0xfd>
    147c:	48 8b 0d 05 3f 20 00 	mov    0x203f05(%rip),%rcx        # 205388 <optarg@@GLIBC_2.2.5>
    1483:	48 8d 15 f8 1e 00 00 	lea    0x1ef8(%rip),%rdx        # 3382 <_IO_stdin_used+0x232>
    148a:	be 01 00 00 00       	mov    $0x1,%esi
    148f:	48 8b 3d 0a 3f 20 00 	mov    0x203f0a(%rip),%rdi        # 2053a0 <stderr@@GLIBC_2.2.5>
    1496:	e8 b5 fb ff ff       	callq  1050 <__fprintf_chk@plt>
    149b:	b8 01 00 00 00       	mov    $0x1,%eax
    14a0:	e9 d9 00 00 00       	jmpq   157e <main+0x1bd>
    14a5:	ba 10 00 00 00       	mov    $0x10,%edx
    14aa:	be 00 00 00 00       	mov    $0x0,%esi
    14af:	48 8b 3d d2 3e 20 00 	mov    0x203ed2(%rip),%rdi        # 205388 <optarg@@GLIBC_2.2.5>
    14b6:	e8 55 fb ff ff       	callq  1010 <strtoul@plt>
    14bb:	41 89 c6             	mov    %eax,%r14d
    14be:	48 89 ea             	mov    %rbp,%rdx
    14c1:	48 89 de             	mov    %rbx,%rsi
    14c4:	44 89 e7             	mov    %r12d,%edi
    14c7:	e8 34 fb ff ff       	callq  1000 <getopt@plt>
    14cc:	3c ff                	cmp    $0xff,%al
    14ce:	74 62                	je     1532 <main+0x171>
    14d0:	0f be d0             	movsbl %al,%edx
    14d3:	83 e8 61             	sub    $0x61,%eax
    14d6:	3c 10                	cmp    $0x10,%al
    14d8:	77 3a                	ja     1514 <main+0x153>
    14da:	0f b6 c0             	movzbl %al,%eax
    14dd:	48 8d 0d dc 1e 00 00 	lea    0x1edc(%rip),%rcx        # 33c0 <_IO_stdin_used+0x270>
    14e4:	48 63 04 81          	movslq (%rcx,%rax,4),%rax
    14e8:	48 01 c8             	add    %rcx,%rax
    14eb:	ff e0                	jmpq   *%rax
    14ed:	ba 0a 00 00 00       	mov    $0xa,%edx
    14f2:	be 00 00 00 00       	mov    $0x0,%esi
    14f7:	48 8b 3d 8a 3e 20 00 	mov    0x203e8a(%rip),%rdi        # 205388 <optarg@@GLIBC_2.2.5>
    14fe:	e8 6d fa ff ff       	callq  f70 <strtol@plt>
    1503:	41 89 c5             	mov    %eax,%r13d
    1506:	eb b6                	jmp    14be <main+0xfd>
    1508:	c7 05 56 3e 20 00 00 	movl   $0x0,0x203e56(%rip)        # 205368 <notify>
    150f:	00 00 00 
    1512:	eb aa                	jmp    14be <main+0xfd>
    1514:	48 8d 35 84 1e 00 00 	lea    0x1e84(%rip),%rsi        # 339f <_IO_stdin_used+0x24f>
    151b:	bf 01 00 00 00       	mov    $0x1,%edi
    1520:	b8 00 00 00 00       	mov    $0x0,%eax
    1525:	e8 b6 fa ff ff       	callq  fe0 <__printf_chk@plt>
    152a:	48 8b 3b             	mov    (%rbx),%rdi
    152d:	e8 68 fc ff ff       	callq  119a <usage>
    1532:	be 00 00 00 00       	mov    $0x0,%esi
    1537:	44 89 ef             	mov    %r13d,%edi
    153a:	e8 f7 fc ff ff       	callq  1236 <initialize_target>
    153f:	83 3d a2 3e 20 00 00 	cmpl   $0x0,0x203ea2(%rip)        # 2053e8 <is_checker>
    1546:	74 09                	je     1551 <main+0x190>
    1548:	44 39 35 91 3e 20 00 	cmp    %r14d,0x203e91(%rip)        # 2053e0 <authkey>
    154f:	75 36                	jne    1587 <main+0x1c6>
    1551:	8b 15 8d 3e 20 00    	mov    0x203e8d(%rip),%edx        # 2053e4 <cookie>
    1557:	48 8d 35 54 1e 00 00 	lea    0x1e54(%rip),%rsi        # 33b2 <_IO_stdin_used+0x262>
    155e:	bf 01 00 00 00       	mov    $0x1,%edi
    1563:	b8 00 00 00 00       	mov    $0x0,%eax
    1568:	e8 73 fa ff ff       	callq  fe0 <__printf_chk@plt>
    156d:	48 8b 3d ec 3d 20 00 	mov    0x203dec(%rip),%rdi        # 205360 <buf_offset>
    1574:	e8 20 0d 00 00       	callq  2299 <stable_launch>
    1579:	b8 00 00 00 00       	mov    $0x0,%eax
    157e:	5b                   	pop    %rbx
    157f:	5d                   	pop    %rbp
    1580:	41 5c                	pop    %r12
    1582:	41 5d                	pop    %r13
    1584:	41 5e                	pop    %r14
    1586:	c3                   	retq   
    1587:	44 89 f2             	mov    %r14d,%edx
    158a:	48 8d 35 47 1d 00 00 	lea    0x1d47(%rip),%rsi        # 32d8 <_IO_stdin_used+0x188>
    1591:	bf 01 00 00 00       	mov    $0x1,%edi
    1596:	b8 00 00 00 00       	mov    $0x0,%eax
    159b:	e8 40 fa ff ff       	callq  fe0 <__printf_chk@plt>
    15a0:	b8 00 00 00 00       	mov    $0x0,%eax
    15a5:	e8 47 07 00 00       	callq  1cf1 <check_fail>
    15aa:	eb a5                	jmp    1551 <main+0x190>

00000000000015ac <scramble>:
    15ac:	48 83 ec 38          	sub    $0x38,%rsp
    15b0:	64 48 8b 04 25 28 00 	mov    %fs:0x28,%rax
    15b7:	00 00 
    15b9:	48 89 44 24 28       	mov    %rax,0x28(%rsp)
    15be:	31 c0                	xor    %eax,%eax
    15c0:	eb 10                	jmp    15d2 <scramble+0x26>
    15c2:	69 d0 9a 9d 00 00    	imul   $0x9d9a,%eax,%edx
    15c8:	01 fa                	add    %edi,%edx
    15ca:	89 c1                	mov    %eax,%ecx
    15cc:	89 14 8c             	mov    %edx,(%rsp,%rcx,4)
    15cf:	83 c0 01             	add    $0x1,%eax
    15d2:	83 f8 09             	cmp    $0x9,%eax
    15d5:	76 eb                	jbe    15c2 <scramble+0x16>
    15d7:	8b 44 24 10          	mov    0x10(%rsp),%eax
    15db:	69 c0 f1 b6 00 00    	imul   $0xb6f1,%eax,%eax
    15e1:	89 44 24 10          	mov    %eax,0x10(%rsp)
    15e5:	8b 44 24 18          	mov    0x18(%rsp),%eax
    15e9:	6b c0 37             	imul   $0x37,%eax,%eax
    15ec:	89 44 24 18          	mov    %eax,0x18(%rsp)
    15f0:	8b 44 24 20          	mov    0x20(%rsp),%eax
    15f4:	69 c0 44 cf 00 00    	imul   $0xcf44,%eax,%eax
    15fa:	89 44 24 20          	mov    %eax,0x20(%rsp)
    15fe:	8b 44 24 24          	mov    0x24(%rsp),%eax
    1602:	69 c0 6f a4 00 00    	imul   $0xa46f,%eax,%eax
    1608:	89 44 24 24          	mov    %eax,0x24(%rsp)
    160c:	8b 44 24 0c          	mov    0xc(%rsp),%eax
    1610:	69 c0 69 6b 00 00    	imul   $0x6b69,%eax,%eax
    1616:	89 44 24 0c          	mov    %eax,0xc(%rsp)
    161a:	8b 44 24 20          	mov    0x20(%rsp),%eax
    161e:	69 c0 b1 c0 00 00    	imul   $0xc0b1,%eax,%eax
    1624:	89 44 24 20          	mov    %eax,0x20(%rsp)
    1628:	8b 04 24             	mov    (%rsp),%eax
    162b:	69 c0 4c 8b 00 00    	imul   $0x8b4c,%eax,%eax
    1631:	89 04 24             	mov    %eax,(%rsp)
    1634:	8b 44 24 24          	mov    0x24(%rsp),%eax
    1638:	69 c0 4a 2d 00 00    	imul   $0x2d4a,%eax,%eax
    163e:	89 44 24 24          	mov    %eax,0x24(%rsp)
    1642:	8b 44 24 10          	mov    0x10(%rsp),%eax
    1646:	69 c0 7f db 00 00    	imul   $0xdb7f,%eax,%eax
    164c:	89 44 24 10          	mov    %eax,0x10(%rsp)
    1650:	8b 04 24             	mov    (%rsp),%eax
    1653:	69 c0 fc c9 00 00    	imul   $0xc9fc,%eax,%eax
    1659:	89 04 24             	mov    %eax,(%rsp)
    165c:	8b 44 24 10          	mov    0x10(%rsp),%eax
    1660:	69 c0 bf 37 00 00    	imul   $0x37bf,%eax,%eax
    1666:	89 44 24 10          	mov    %eax,0x10(%rsp)
    166a:	8b 44 24 20          	mov    0x20(%rsp),%eax
    166e:	69 c0 e0 b1 00 00    	imul   $0xb1e0,%eax,%eax
    1674:	89 44 24 20          	mov    %eax,0x20(%rsp)
    1678:	8b 44 24 10          	mov    0x10(%rsp),%eax
    167c:	69 c0 ba 41 00 00    	imul   $0x41ba,%eax,%eax
    1682:	89 44 24 10          	mov    %eax,0x10(%rsp)
    1686:	8b 44 24 1c          	mov    0x1c(%rsp),%eax
    168a:	69 c0 34 05 00 00    	imul   $0x534,%eax,%eax
    1690:	89 44 24 1c          	mov    %eax,0x1c(%rsp)
    1694:	8b 44 24 1c          	mov    0x1c(%rsp),%eax
    1698:	69 c0 1c 2b 00 00    	imul   $0x2b1c,%eax,%eax
    169e:	89 44 24 1c          	mov    %eax,0x1c(%rsp)
    16a2:	8b 44 24 0c          	mov    0xc(%rsp),%eax
    16a6:	69 c0 ba f9 00 00    	imul   $0xf9ba,%eax,%eax
    16ac:	89 44 24 0c          	mov    %eax,0xc(%rsp)
    16b0:	8b 44 24 14          	mov    0x14(%rsp),%eax
    16b4:	69 c0 09 5a 00 00    	imul   $0x5a09,%eax,%eax
    16ba:	89 44 24 14          	mov    %eax,0x14(%rsp)
    16be:	8b 44 24 1c          	mov    0x1c(%rsp),%eax
    16c2:	69 c0 ca 6f 00 00    	imul   $0x6fca,%eax,%eax
    16c8:	89 44 24 1c          	mov    %eax,0x1c(%rsp)
    16cc:	8b 44 24 14          	mov    0x14(%rsp),%eax
    16d0:	69 c0 a5 1d 00 00    	imul   $0x1da5,%eax,%eax
    16d6:	89 44 24 14          	mov    %eax,0x14(%rsp)
    16da:	8b 44 24 18          	mov    0x18(%rsp),%eax
    16de:	69 c0 1f f7 00 00    	imul   $0xf71f,%eax,%eax
    16e4:	89 44 24 18          	mov    %eax,0x18(%rsp)
    16e8:	8b 44 24 20          	mov    0x20(%rsp),%eax
    16ec:	69 c0 14 c7 00 00    	imul   $0xc714,%eax,%eax
    16f2:	89 44 24 20          	mov    %eax,0x20(%rsp)
    16f6:	8b 44 24 04          	mov    0x4(%rsp),%eax
    16fa:	69 c0 cf 80 00 00    	imul   $0x80cf,%eax,%eax
    1700:	89 44 24 04          	mov    %eax,0x4(%rsp)
    1704:	8b 44 24 14          	mov    0x14(%rsp),%eax
    1708:	69 c0 1c 20 00 00    	imul   $0x201c,%eax,%eax
    170e:	89 44 24 14          	mov    %eax,0x14(%rsp)
    1712:	8b 44 24 0c          	mov    0xc(%rsp),%eax
    1716:	69 c0 60 53 00 00    	imul   $0x5360,%eax,%eax
    171c:	89 44 24 0c          	mov    %eax,0xc(%rsp)
    1720:	8b 44 24 18          	mov    0x18(%rsp),%eax
    1724:	69 c0 26 c8 00 00    	imul   $0xc826,%eax,%eax
    172a:	89 44 24 18          	mov    %eax,0x18(%rsp)
    172e:	8b 44 24 14          	mov    0x14(%rsp),%eax
    1732:	69 c0 f8 b8 00 00    	imul   $0xb8f8,%eax,%eax
    1738:	89 44 24 14          	mov    %eax,0x14(%rsp)
    173c:	8b 04 24             	mov    (%rsp),%eax
    173f:	69 c0 18 96 00 00    	imul   $0x9618,%eax,%eax
    1745:	89 04 24             	mov    %eax,(%rsp)
    1748:	8b 44 24 20          	mov    0x20(%rsp),%eax
    174c:	69 c0 f4 43 00 00    	imul   $0x43f4,%eax,%eax
    1752:	89 44 24 20          	mov    %eax,0x20(%rsp)
    1756:	8b 04 24             	mov    (%rsp),%eax
    1759:	69 c0 26 50 00 00    	imul   $0x5026,%eax,%eax
    175f:	89 04 24             	mov    %eax,(%rsp)
    1762:	8b 44 24 10          	mov    0x10(%rsp),%eax
    1766:	69 c0 f2 33 00 00    	imul   $0x33f2,%eax,%eax
    176c:	89 44 24 10          	mov    %eax,0x10(%rsp)
    1770:	8b 04 24             	mov    (%rsp),%eax
    1773:	69 c0 ff d0 00 00    	imul   $0xd0ff,%eax,%eax
    1779:	89 04 24             	mov    %eax,(%rsp)
    177c:	8b 44 24 0c          	mov    0xc(%rsp),%eax
    1780:	69 c0 50 5d 00 00    	imul   $0x5d50,%eax,%eax
    1786:	89 44 24 0c          	mov    %eax,0xc(%rsp)
    178a:	8b 04 24             	mov    (%rsp),%eax
    178d:	69 c0 9d 27 00 00    	imul   $0x279d,%eax,%eax
    1793:	89 04 24             	mov    %eax,(%rsp)
    1796:	8b 04 24             	mov    (%rsp),%eax
    1799:	69 c0 56 54 00 00    	imul   $0x5456,%eax,%eax
    179f:	89 04 24             	mov    %eax,(%rsp)
    17a2:	8b 44 24 04          	mov    0x4(%rsp),%eax
    17a6:	69 c0 53 e1 00 00    	imul   $0xe153,%eax,%eax
    17ac:	89 44 24 04          	mov    %eax,0x4(%rsp)
    17b0:	8b 44 24 1c          	mov    0x1c(%rsp),%eax
    17b4:	69 c0 50 ce 00 00    	imul   $0xce50,%eax,%eax
    17ba:	89 44 24 1c          	mov    %eax,0x1c(%rsp)
    17be:	8b 44 24 0c          	mov    0xc(%rsp),%eax
    17c2:	69 c0 45 03 00 00    	imul   $0x345,%eax,%eax
    17c8:	89 44 24 0c          	mov    %eax,0xc(%rsp)
    17cc:	8b 44 24 08          	mov    0x8(%rsp),%eax
    17d0:	69 c0 c8 fa 00 00    	imul   $0xfac8,%eax,%eax
    17d6:	89 44 24 08          	mov    %eax,0x8(%rsp)
    17da:	8b 44 24 0c          	mov    0xc(%rsp),%eax
    17de:	69 c0 39 fd 00 00    	imul   $0xfd39,%eax,%eax
    17e4:	89 44 24 0c          	mov    %eax,0xc(%rsp)
    17e8:	8b 44 24 0c          	mov    0xc(%rsp),%eax
    17ec:	69 c0 fd 1e 00 00    	imul   $0x1efd,%eax,%eax
    17f2:	89 44 24 0c          	mov    %eax,0xc(%rsp)
    17f6:	8b 44 24 04          	mov    0x4(%rsp),%eax
    17fa:	69 c0 85 6b 00 00    	imul   $0x6b85,%eax,%eax
    1800:	89 44 24 04          	mov    %eax,0x4(%rsp)
    1804:	8b 44 24 08          	mov    0x8(%rsp),%eax
    1808:	69 c0 44 c5 00 00    	imul   $0xc544,%eax,%eax
    180e:	89 44 24 08          	mov    %eax,0x8(%rsp)
    1812:	8b 44 24 10          	mov    0x10(%rsp),%eax
    1816:	69 c0 cd 42 00 00    	imul   $0x42cd,%eax,%eax
    181c:	89 44 24 10          	mov    %eax,0x10(%rsp)
    1820:	8b 04 24             	mov    (%rsp),%eax
    1823:	69 c0 70 d9 00 00    	imul   $0xd970,%eax,%eax
    1829:	89 04 24             	mov    %eax,(%rsp)
    182c:	8b 04 24             	mov    (%rsp),%eax
    182f:	69 c0 60 52 00 00    	imul   $0x5260,%eax,%eax
    1835:	89 04 24             	mov    %eax,(%rsp)
    1838:	8b 44 24 18          	mov    0x18(%rsp),%eax
    183c:	69 c0 36 0e 00 00    	imul   $0xe36,%eax,%eax
    1842:	89 44 24 18          	mov    %eax,0x18(%rsp)
    1846:	8b 44 24 10          	mov    0x10(%rsp),%eax
    184a:	69 c0 0e 3b 00 00    	imul   $0x3b0e,%eax,%eax
    1850:	89 44 24 10          	mov    %eax,0x10(%rsp)
    1854:	8b 44 24 24          	mov    0x24(%rsp),%eax
    1858:	69 c0 69 4e 00 00    	imul   $0x4e69,%eax,%eax
    185e:	89 44 24 24          	mov    %eax,0x24(%rsp)
    1862:	8b 44 24 04          	mov    0x4(%rsp),%eax
    1866:	69 c0 a0 38 00 00    	imul   $0x38a0,%eax,%eax
    186c:	89 44 24 04          	mov    %eax,0x4(%rsp)
    1870:	8b 44 24 0c          	mov    0xc(%rsp),%eax
    1874:	69 c0 ed a7 00 00    	imul   $0xa7ed,%eax,%eax
    187a:	89 44 24 0c          	mov    %eax,0xc(%rsp)
    187e:	8b 44 24 20          	mov    0x20(%rsp),%eax
    1882:	69 c0 35 ee 00 00    	imul   $0xee35,%eax,%eax
    1888:	89 44 24 20          	mov    %eax,0x20(%rsp)
    188c:	8b 44 24 18          	mov    0x18(%rsp),%eax
    1890:	69 c0 5b c2 00 00    	imul   $0xc25b,%eax,%eax
    1896:	89 44 24 18          	mov    %eax,0x18(%rsp)
    189a:	8b 44 24 04          	mov    0x4(%rsp),%eax
    189e:	69 c0 5d c5 00 00    	imul   $0xc55d,%eax,%eax
    18a4:	89 44 24 04          	mov    %eax,0x4(%rsp)
    18a8:	8b 44 24 08          	mov    0x8(%rsp),%eax
    18ac:	69 c0 dc 14 00 00    	imul   $0x14dc,%eax,%eax
    18b2:	89 44 24 08          	mov    %eax,0x8(%rsp)
    18b6:	8b 44 24 18          	mov    0x18(%rsp),%eax
    18ba:	69 c0 4c 0b 00 00    	imul   $0xb4c,%eax,%eax
    18c0:	89 44 24 18          	mov    %eax,0x18(%rsp)
    18c4:	8b 44 24 18          	mov    0x18(%rsp),%eax
    18c8:	69 c0 f5 87 00 00    	imul   $0x87f5,%eax,%eax
    18ce:	89 44 24 18          	mov    %eax,0x18(%rsp)
    18d2:	8b 44 24 18          	mov    0x18(%rsp),%eax
    18d6:	69 c0 cf 0b 00 00    	imul   $0xbcf,%eax,%eax
    18dc:	89 44 24 18          	mov    %eax,0x18(%rsp)
    18e0:	8b 44 24 0c          	mov    0xc(%rsp),%eax
    18e4:	69 c0 70 78 00 00    	imul   $0x7870,%eax,%eax
    18ea:	89 44 24 0c          	mov    %eax,0xc(%rsp)
    18ee:	8b 44 24 10          	mov    0x10(%rsp),%eax
    18f2:	69 c0 72 56 00 00    	imul   $0x5672,%eax,%eax
    18f8:	89 44 24 10          	mov    %eax,0x10(%rsp)
    18fc:	8b 44 24 24          	mov    0x24(%rsp),%eax
    1900:	69 c0 91 e1 00 00    	imul   $0xe191,%eax,%eax
    1906:	89 44 24 24          	mov    %eax,0x24(%rsp)
    190a:	8b 44 24 04          	mov    0x4(%rsp),%eax
    190e:	69 c0 43 5f 00 00    	imul   $0x5f43,%eax,%eax
    1914:	89 44 24 04          	mov    %eax,0x4(%rsp)
    1918:	8b 44 24 24          	mov    0x24(%rsp),%eax
    191c:	69 c0 33 cc 00 00    	imul   $0xcc33,%eax,%eax
    1922:	89 44 24 24          	mov    %eax,0x24(%rsp)
    1926:	8b 44 24 10          	mov    0x10(%rsp),%eax
    192a:	69 c0 4e 5b 00 00    	imul   $0x5b4e,%eax,%eax
    1930:	89 44 24 10          	mov    %eax,0x10(%rsp)
    1934:	8b 44 24 10          	mov    0x10(%rsp),%eax
    1938:	69 c0 fd fc 00 00    	imul   $0xfcfd,%eax,%eax
    193e:	89 44 24 10          	mov    %eax,0x10(%rsp)
    1942:	8b 04 24             	mov    (%rsp),%eax
    1945:	69 c0 5b bd 00 00    	imul   $0xbd5b,%eax,%eax
    194b:	89 04 24             	mov    %eax,(%rsp)
    194e:	8b 44 24 08          	mov    0x8(%rsp),%eax
    1952:	69 c0 e2 ad 00 00    	imul   $0xade2,%eax,%eax
    1958:	89 44 24 08          	mov    %eax,0x8(%rsp)
    195c:	8b 44 24 0c          	mov    0xc(%rsp),%eax
    1960:	69 c0 28 1b 00 00    	imul   $0x1b28,%eax,%eax
    1966:	89 44 24 0c          	mov    %eax,0xc(%rsp)
    196a:	8b 44 24 10          	mov    0x10(%rsp),%eax
    196e:	69 c0 0b 9d 00 00    	imul   $0x9d0b,%eax,%eax
    1974:	89 44 24 10          	mov    %eax,0x10(%rsp)
    1978:	8b 44 24 24          	mov    0x24(%rsp),%eax
    197c:	69 c0 60 2d 00 00    	imul   $0x2d60,%eax,%eax
    1982:	89 44 24 24          	mov    %eax,0x24(%rsp)
    1986:	8b 44 24 0c          	mov    0xc(%rsp),%eax
    198a:	69 c0 1c a3 00 00    	imul   $0xa31c,%eax,%eax
    1990:	89 44 24 0c          	mov    %eax,0xc(%rsp)
    1994:	8b 44 24 18          	mov    0x18(%rsp),%eax
    1998:	69 c0 c1 e5 00 00    	imul   $0xe5c1,%eax,%eax
    199e:	89 44 24 18          	mov    %eax,0x18(%rsp)
    19a2:	8b 44 24 1c          	mov    0x1c(%rsp),%eax
    19a6:	69 c0 7f af 00 00    	imul   $0xaf7f,%eax,%eax
    19ac:	89 44 24 1c          	mov    %eax,0x1c(%rsp)
    19b0:	8b 44 24 04          	mov    0x4(%rsp),%eax
    19b4:	69 c0 4c 78 00 00    	imul   $0x784c,%eax,%eax
    19ba:	89 44 24 04          	mov    %eax,0x4(%rsp)
    19be:	8b 44 24 18          	mov    0x18(%rsp),%eax
    19c2:	69 c0 2e 40 00 00    	imul   $0x402e,%eax,%eax
    19c8:	89 44 24 18          	mov    %eax,0x18(%rsp)
    19cc:	8b 44 24 24          	mov    0x24(%rsp),%eax
    19d0:	69 c0 cf 79 00 00    	imul   $0x79cf,%eax,%eax
    19d6:	89 44 24 24          	mov    %eax,0x24(%rsp)
    19da:	8b 44 24 10          	mov    0x10(%rsp),%eax
    19de:	69 c0 91 77 00 00    	imul   $0x7791,%eax,%eax
    19e4:	89 44 24 10          	mov    %eax,0x10(%rsp)
    19e8:	8b 44 24 08          	mov    0x8(%rsp),%eax
    19ec:	69 c0 86 11 00 00    	imul   $0x1186,%eax,%eax
    19f2:	89 44 24 08          	mov    %eax,0x8(%rsp)
    19f6:	8b 04 24             	mov    (%rsp),%eax
    19f9:	69 c0 64 73 00 00    	imul   $0x7364,%eax,%eax
    19ff:	89 04 24             	mov    %eax,(%rsp)
    1a02:	8b 44 24 1c          	mov    0x1c(%rsp),%eax
    1a06:	69 c0 60 5e 00 00    	imul   $0x5e60,%eax,%eax
    1a0c:	89 44 24 1c          	mov    %eax,0x1c(%rsp)
    1a10:	8b 44 24 18          	mov    0x18(%rsp),%eax
    1a14:	69 c0 c3 00 00 00    	imul   $0xc3,%eax,%eax
    1a1a:	89 44 24 18          	mov    %eax,0x18(%rsp)
    1a1e:	8b 44 24 1c          	mov    0x1c(%rsp),%eax
    1a22:	69 c0 4b 15 00 00    	imul   $0x154b,%eax,%eax
    1a28:	89 44 24 1c          	mov    %eax,0x1c(%rsp)
    1a2c:	8b 04 24             	mov    (%rsp),%eax
    1a2f:	69 c0 4c c7 00 00    	imul   $0xc74c,%eax,%eax
    1a35:	89 04 24             	mov    %eax,(%rsp)
    1a38:	8b 44 24 04          	mov    0x4(%rsp),%eax
    1a3c:	69 c0 e2 1e 00 00    	imul   $0x1ee2,%eax,%eax
    1a42:	89 44 24 04          	mov    %eax,0x4(%rsp)
    1a46:	8b 44 24 20          	mov    0x20(%rsp),%eax
    1a4a:	69 c0 fa 10 00 00    	imul   $0x10fa,%eax,%eax
    1a50:	89 44 24 20          	mov    %eax,0x20(%rsp)
    1a54:	ba 00 00 00 00       	mov    $0x0,%edx
    1a59:	b8 00 00 00 00       	mov    $0x0,%eax
    1a5e:	eb 0a                	jmp    1a6a <scramble+0x4be>
    1a60:	89 d1                	mov    %edx,%ecx
    1a62:	8b 0c 8c             	mov    (%rsp,%rcx,4),%ecx
    1a65:	01 c8                	add    %ecx,%eax
    1a67:	83 c2 01             	add    $0x1,%edx
    1a6a:	83 fa 09             	cmp    $0x9,%edx
    1a6d:	76 f1                	jbe    1a60 <scramble+0x4b4>
    1a6f:	48 8b 74 24 28       	mov    0x28(%rsp),%rsi
    1a74:	64 48 33 34 25 28 00 	xor    %fs:0x28,%rsi
    1a7b:	00 00 
    1a7d:	75 05                	jne    1a84 <scramble+0x4d8>
    1a7f:	48 83 c4 38          	add    $0x38,%rsp
    1a83:	c3                   	retq   
    1a84:	e8 57 f4 ff ff       	callq  ee0 <__stack_chk_fail@plt>

0000000000001a89 <getbuf>:
    1a89:	48 83 ec 38          	sub    $0x38,%rsp
    1a8d:	48 89 e7             	mov    %rsp,%rdi
    1a90:	e8 94 02 00 00       	callq  1d29 <Gets>
    1a95:	b8 01 00 00 00       	mov    $0x1,%eax
    1a9a:	48 83 c4 38          	add    $0x38,%rsp
    1a9e:	c3                   	retq   

0000000000001a9f <touch1>:
    1a9f:	48 83 ec 08          	sub    $0x8,%rsp
    1aa3:	c7 05 2f 39 20 00 01 	movl   $0x1,0x20392f(%rip)        # 2053dc <vlevel>
    1aaa:	00 00 00 
    1aad:	48 8d 3d d7 19 00 00 	lea    0x19d7(%rip),%rdi        # 348b <_IO_stdin_used+0x33b>
    1ab4:	e8 07 f4 ff ff       	callq  ec0 <puts@plt>
    1ab9:	bf 01 00 00 00       	mov    $0x1,%edi
    1abe:	e8 d6 04 00 00       	callq  1f99 <validate>
    1ac3:	bf 00 00 00 00       	mov    $0x0,%edi
    1ac8:	e8 63 f5 ff ff       	callq  1030 <exit@plt>

0000000000001acd <touch2>:
    1acd:	48 83 ec 08          	sub    $0x8,%rsp
    1ad1:	89 fa                	mov    %edi,%edx
    1ad3:	c7 05 ff 38 20 00 02 	movl   $0x2,0x2038ff(%rip)        # 2053dc <vlevel>
    1ada:	00 00 00 
    1add:	39 3d 01 39 20 00    	cmp    %edi,0x203901(%rip)        # 2053e4 <cookie>
    1ae3:	74 2a                	je     1b0f <touch2+0x42>
    1ae5:	48 8d 35 ec 19 00 00 	lea    0x19ec(%rip),%rsi        # 34d8 <_IO_stdin_used+0x388>
    1aec:	bf 01 00 00 00       	mov    $0x1,%edi
    1af1:	b8 00 00 00 00       	mov    $0x0,%eax
    1af6:	e8 e5 f4 ff ff       	callq  fe0 <__printf_chk@plt>
    1afb:	bf 02 00 00 00       	mov    $0x2,%edi
    1b00:	e8 64 05 00 00       	callq  2069 <fail>
    1b05:	bf 00 00 00 00       	mov    $0x0,%edi
    1b0a:	e8 21 f5 ff ff       	callq  1030 <exit@plt>
    1b0f:	48 8d 35 9a 19 00 00 	lea    0x199a(%rip),%rsi        # 34b0 <_IO_stdin_used+0x360>
    1b16:	bf 01 00 00 00       	mov    $0x1,%edi
    1b1b:	b8 00 00 00 00       	mov    $0x0,%eax
    1b20:	e8 bb f4 ff ff       	callq  fe0 <__printf_chk@plt>
    1b25:	bf 02 00 00 00       	mov    $0x2,%edi
    1b2a:	e8 6a 04 00 00       	callq  1f99 <validate>
    1b2f:	eb d4                	jmp    1b05 <touch2+0x38>

0000000000001b31 <hexmatch>:
    1b31:	41 54                	push   %r12
    1b33:	55                   	push   %rbp
    1b34:	53                   	push   %rbx
    1b35:	48 83 c4 80          	add    $0xffffffffffffff80,%rsp
    1b39:	89 fd                	mov    %edi,%ebp
    1b3b:	48 89 f3             	mov    %rsi,%rbx
    1b3e:	64 48 8b 04 25 28 00 	mov    %fs:0x28,%rax
    1b45:	00 00 
    1b47:	48 89 44 24 78       	mov    %rax,0x78(%rsp)
    1b4c:	31 c0                	xor    %eax,%eax
    1b4e:	e8 4d f4 ff ff       	callq  fa0 <random@plt>
    1b53:	48 89 c1             	mov    %rax,%rcx
    1b56:	48 ba 0b d7 a3 70 3d 	movabs $0xa3d70a3d70a3d70b,%rdx
    1b5d:	0a d7 a3 
    1b60:	48 f7 ea             	imul   %rdx
    1b63:	48 01 ca             	add    %rcx,%rdx
    1b66:	48 c1 fa 06          	sar    $0x6,%rdx
    1b6a:	48 89 c8             	mov    %rcx,%rax
    1b6d:	48 c1 f8 3f          	sar    $0x3f,%rax
    1b71:	48 29 c2             	sub    %rax,%rdx
    1b74:	48 8d 04 92          	lea    (%rdx,%rdx,4),%rax
    1b78:	48 8d 14 80          	lea    (%rax,%rax,4),%rdx
    1b7c:	48 8d 04 95 00 00 00 	lea    0x0(,%rdx,4),%rax
    1b83:	00 
    1b84:	48 29 c1             	sub    %rax,%rcx
    1b87:	4c 8d 24 0c          	lea    (%rsp,%rcx,1),%r12
    1b8b:	41 89 e8             	mov    %ebp,%r8d
    1b8e:	48 8d 0d 13 19 00 00 	lea    0x1913(%rip),%rcx        # 34a8 <_IO_stdin_used+0x358>
    1b95:	48 c7 c2 ff ff ff ff 	mov    $0xffffffffffffffff,%rdx
    1b9c:	be 01 00 00 00       	mov    $0x1,%esi
    1ba1:	4c 89 e7             	mov    %r12,%rdi
    1ba4:	b8 00 00 00 00       	mov    $0x0,%eax
    1ba9:	e8 b2 f4 ff ff       	callq  1060 <__sprintf_chk@plt>
    1bae:	ba 09 00 00 00       	mov    $0x9,%edx
    1bb3:	4c 89 e6             	mov    %r12,%rsi
    1bb6:	48 89 df             	mov    %rbx,%rdi
    1bb9:	e8 e2 f2 ff ff       	callq  ea0 <strncmp@plt>
    1bbe:	85 c0                	test   %eax,%eax
    1bc0:	0f 94 c0             	sete   %al
    1bc3:	48 8b 5c 24 78       	mov    0x78(%rsp),%rbx
    1bc8:	64 48 33 1c 25 28 00 	xor    %fs:0x28,%rbx
    1bcf:	00 00 
    1bd1:	75 0c                	jne    1bdf <hexmatch+0xae>
    1bd3:	0f b6 c0             	movzbl %al,%eax
    1bd6:	48 83 ec 80          	sub    $0xffffffffffffff80,%rsp
    1bda:	5b                   	pop    %rbx
    1bdb:	5d                   	pop    %rbp
    1bdc:	41 5c                	pop    %r12
    1bde:	c3                   	retq   
    1bdf:	e8 fc f2 ff ff       	callq  ee0 <__stack_chk_fail@plt>

0000000000001be4 <touch3>:
    1be4:	53                   	push   %rbx
    1be5:	48 89 fb             	mov    %rdi,%rbx
    1be8:	c7 05 ea 37 20 00 03 	movl   $0x3,0x2037ea(%rip)        # 2053dc <vlevel>
    1bef:	00 00 00 
    1bf2:	48 89 fe             	mov    %rdi,%rsi
    1bf5:	8b 3d e9 37 20 00    	mov    0x2037e9(%rip),%edi        # 2053e4 <cookie>
    1bfb:	e8 31 ff ff ff       	callq  1b31 <hexmatch>
    1c00:	85 c0                	test   %eax,%eax
    1c02:	74 2d                	je     1c31 <touch3+0x4d>
    1c04:	48 89 da             	mov    %rbx,%rdx
    1c07:	48 8d 35 f2 18 00 00 	lea    0x18f2(%rip),%rsi        # 3500 <_IO_stdin_used+0x3b0>
    1c0e:	bf 01 00 00 00       	mov    $0x1,%edi
    1c13:	b8 00 00 00 00       	mov    $0x0,%eax
    1c18:	e8 c3 f3 ff ff       	callq  fe0 <__printf_chk@plt>
    1c1d:	bf 03 00 00 00       	mov    $0x3,%edi
    1c22:	e8 72 03 00 00       	callq  1f99 <validate>
    1c27:	bf 00 00 00 00       	mov    $0x0,%edi
    1c2c:	e8 ff f3 ff ff       	callq  1030 <exit@plt>
    1c31:	48 89 da             	mov    %rbx,%rdx
    1c34:	48 8d 35 ed 18 00 00 	lea    0x18ed(%rip),%rsi        # 3528 <_IO_stdin_used+0x3d8>
    1c3b:	bf 01 00 00 00       	mov    $0x1,%edi
    1c40:	b8 00 00 00 00       	mov    $0x0,%eax
    1c45:	e8 96 f3 ff ff       	callq  fe0 <__printf_chk@plt>
    1c4a:	bf 03 00 00 00       	mov    $0x3,%edi
    1c4f:	e8 15 04 00 00       	callq  2069 <fail>
    1c54:	eb d1                	jmp    1c27 <touch3+0x43>

0000000000001c56 <test>:
    1c56:	48 83 ec 08          	sub    $0x8,%rsp
    1c5a:	b8 00 00 00 00       	mov    $0x0,%eax
    1c5f:	e8 25 fe ff ff       	callq  1a89 <getbuf>
    1c64:	89 c2                	mov    %eax,%edx
    1c66:	48 8d 35 e3 18 00 00 	lea    0x18e3(%rip),%rsi        # 3550 <_IO_stdin_used+0x400>
    1c6d:	bf 01 00 00 00       	mov    $0x1,%edi
    1c72:	b8 00 00 00 00       	mov    $0x0,%eax
    1c77:	e8 64 f3 ff ff       	callq  fe0 <__printf_chk@plt>
    1c7c:	48 83 c4 08          	add    $0x8,%rsp
    1c80:	c3                   	retq   

0000000000001c81 <save_char>:
    1c81:	8b 05 7d 43 20 00    	mov    0x20437d(%rip),%eax        # 206004 <gets_cnt>
    1c87:	3d ff 03 00 00       	cmp    $0x3ff,%eax
    1c8c:	7f 4a                	jg     1cd8 <save_char+0x57>
    1c8e:	89 f9                	mov    %edi,%ecx
    1c90:	c0 e9 04             	shr    $0x4,%cl
    1c93:	8d 14 40             	lea    (%rax,%rax,2),%edx
    1c96:	4c 8d 05 d3 1b 00 00 	lea    0x1bd3(%rip),%r8        # 3870 <trans_char>
    1c9d:	83 e1 0f             	and    $0xf,%ecx
    1ca0:	45 0f b6 0c 08       	movzbl (%r8,%rcx,1),%r9d
    1ca5:	48 8d 0d 54 37 20 00 	lea    0x203754(%rip),%rcx        # 205400 <gets_buf>
    1cac:	48 63 f2             	movslq %edx,%rsi
    1caf:	44 88 0c 31          	mov    %r9b,(%rcx,%rsi,1)
    1cb3:	8d 72 01             	lea    0x1(%rdx),%esi
    1cb6:	83 e7 0f             	and    $0xf,%edi
    1cb9:	41 0f b6 3c 38       	movzbl (%r8,%rdi,1),%edi
    1cbe:	48 63 f6             	movslq %esi,%rsi
    1cc1:	40 88 3c 31          	mov    %dil,(%rcx,%rsi,1)
    1cc5:	83 c2 02             	add    $0x2,%edx
    1cc8:	48 63 d2             	movslq %edx,%rdx
    1ccb:	c6 04 11 20          	movb   $0x20,(%rcx,%rdx,1)
    1ccf:	83 c0 01             	add    $0x1,%eax
    1cd2:	89 05 2c 43 20 00    	mov    %eax,0x20432c(%rip)        # 206004 <gets_cnt>
    1cd8:	f3 c3                	repz retq 

0000000000001cda <save_term>:
    1cda:	8b 05 24 43 20 00    	mov    0x204324(%rip),%eax        # 206004 <gets_cnt>
    1ce0:	8d 04 40             	lea    (%rax,%rax,2),%eax
    1ce3:	48 98                	cltq   
    1ce5:	48 8d 15 14 37 20 00 	lea    0x203714(%rip),%rdx        # 205400 <gets_buf>
    1cec:	c6 04 02 00          	movb   $0x0,(%rdx,%rax,1)
    1cf0:	c3                   	retq   

0000000000001cf1 <check_fail>:
    1cf1:	48 83 ec 08          	sub    $0x8,%rsp
    1cf5:	0f be 15 0c 43 20 00 	movsbl 0x20430c(%rip),%edx        # 206008 <target_prefix>
    1cfc:	4c 8d 05 fd 36 20 00 	lea    0x2036fd(%rip),%r8        # 205400 <gets_buf>
    1d03:	8b 0d cf 36 20 00    	mov    0x2036cf(%rip),%ecx        # 2053d8 <check_level>
    1d09:	48 8d 35 63 18 00 00 	lea    0x1863(%rip),%rsi        # 3573 <_IO_stdin_used+0x423>
    1d10:	bf 01 00 00 00       	mov    $0x1,%edi
    1d15:	b8 00 00 00 00       	mov    $0x0,%eax
    1d1a:	e8 c1 f2 ff ff       	callq  fe0 <__printf_chk@plt>
    1d1f:	bf 01 00 00 00       	mov    $0x1,%edi
    1d24:	e8 07 f3 ff ff       	callq  1030 <exit@plt>

0000000000001d29 <Gets>:
    1d29:	41 54                	push   %r12
    1d2b:	55                   	push   %rbp
    1d2c:	53                   	push   %rbx
    1d2d:	49 89 fc             	mov    %rdi,%r12
    1d30:	c7 05 ca 42 20 00 00 	movl   $0x0,0x2042ca(%rip)        # 206004 <gets_cnt>
    1d37:	00 00 00 
    1d3a:	48 89 fb             	mov    %rdi,%rbx
    1d3d:	eb 11                	jmp    1d50 <Gets+0x27>
    1d3f:	48 8d 6b 01          	lea    0x1(%rbx),%rbp
    1d43:	88 03                	mov    %al,(%rbx)
    1d45:	0f b6 f8             	movzbl %al,%edi
    1d48:	e8 34 ff ff ff       	callq  1c81 <save_char>
    1d4d:	48 89 eb             	mov    %rbp,%rbx
    1d50:	48 8b 3d 79 36 20 00 	mov    0x203679(%rip),%rdi        # 2053d0 <infile>
    1d57:	e8 54 f2 ff ff       	callq  fb0 <_IO_getc@plt>
    1d5c:	83 f8 ff             	cmp    $0xffffffff,%eax
    1d5f:	74 05                	je     1d66 <Gets+0x3d>
    1d61:	83 f8 0a             	cmp    $0xa,%eax
    1d64:	75 d9                	jne    1d3f <Gets+0x16>
    1d66:	c6 03 00             	movb   $0x0,(%rbx)
    1d69:	b8 00 00 00 00       	mov    $0x0,%eax
    1d6e:	e8 67 ff ff ff       	callq  1cda <save_term>
    1d73:	4c 89 e0             	mov    %r12,%rax
    1d76:	5b                   	pop    %rbx
    1d77:	5d                   	pop    %rbp
    1d78:	41 5c                	pop    %r12
    1d7a:	c3                   	retq   

0000000000001d7b <notify_server>:
    1d7b:	55                   	push   %rbp
    1d7c:	53                   	push   %rbx
    1d7d:	48 81 ec 18 40 00 00 	sub    $0x4018,%rsp
    1d84:	64 48 8b 04 25 28 00 	mov    %fs:0x28,%rax
    1d8b:	00 00 
    1d8d:	48 89 84 24 08 40 00 	mov    %rax,0x4008(%rsp)
    1d94:	00 
    1d95:	31 c0                	xor    %eax,%eax
    1d97:	83 3d 4a 36 20 00 00 	cmpl   $0x0,0x20364a(%rip)        # 2053e8 <is_checker>
    1d9e:	0f 85 d2 00 00 00    	jne    1e76 <notify_server+0xfb>
    1da4:	89 fb                	mov    %edi,%ebx
    1da6:	8b 05 58 42 20 00    	mov    0x204258(%rip),%eax        # 206004 <gets_cnt>
    1dac:	83 c0 64             	add    $0x64,%eax
    1daf:	3d 00 20 00 00       	cmp    $0x2000,%eax
    1db4:	0f 8f dd 00 00 00    	jg     1e97 <notify_server+0x11c>
    1dba:	0f be 05 47 42 20 00 	movsbl 0x204247(%rip),%eax        # 206008 <target_prefix>
    1dc1:	83 3d a0 35 20 00 00 	cmpl   $0x0,0x2035a0(%rip)        # 205368 <notify>
    1dc8:	0f 84 e9 00 00 00    	je     1eb7 <notify_server+0x13c>
    1dce:	8b 15 0c 36 20 00    	mov    0x20360c(%rip),%edx        # 2053e0 <authkey>
    1dd4:	85 db                	test   %ebx,%ebx
    1dd6:	0f 84 e5 00 00 00    	je     1ec1 <notify_server+0x146>
    1ddc:	48 8d 2d a6 17 00 00 	lea    0x17a6(%rip),%rbp        # 3589 <_IO_stdin_used+0x439>
    1de3:	48 89 e7             	mov    %rsp,%rdi
    1de6:	48 8d 0d 13 36 20 00 	lea    0x203613(%rip),%rcx        # 205400 <gets_buf>
    1ded:	51                   	push   %rcx
    1dee:	56                   	push   %rsi
    1def:	50                   	push   %rax
    1df0:	52                   	push   %rdx
    1df1:	49 89 e9             	mov    %rbp,%r9
    1df4:	44 8b 05 15 32 20 00 	mov    0x203215(%rip),%r8d        # 205010 <target_id>
    1dfb:	48 8d 0d 91 17 00 00 	lea    0x1791(%rip),%rcx        # 3593 <_IO_stdin_used+0x443>
    1e02:	ba 00 20 00 00       	mov    $0x2000,%edx
    1e07:	be 01 00 00 00       	mov    $0x1,%esi
    1e0c:	b8 00 00 00 00       	mov    $0x0,%eax
    1e11:	e8 4a f2 ff ff       	callq  1060 <__sprintf_chk@plt>
    1e16:	48 83 c4 20          	add    $0x20,%rsp
    1e1a:	83 3d 47 35 20 00 00 	cmpl   $0x0,0x203547(%rip)        # 205368 <notify>
    1e21:	0f 84 df 00 00 00    	je     1f06 <notify_server+0x18b>
    1e27:	85 db                	test   %ebx,%ebx
    1e29:	0f 84 c6 00 00 00    	je     1ef5 <notify_server+0x17a>
    1e2f:	48 89 e1             	mov    %rsp,%rcx
    1e32:	4c 8d 8c 24 00 20 00 	lea    0x2000(%rsp),%r9
    1e39:	00 
    1e3a:	41 b8 00 00 00 00    	mov    $0x0,%r8d
    1e40:	48 8b 15 e1 31 20 00 	mov    0x2031e1(%rip),%rdx        # 205028 <lab>
    1e47:	48 8b 35 e2 31 20 00 	mov    0x2031e2(%rip),%rsi        # 205030 <course>
    1e4e:	48 8b 3d cb 31 20 00 	mov    0x2031cb(%rip),%rdi        # 205020 <user_id>
    1e55:	e8 af 11 00 00       	callq  3009 <driver_post>
    1e5a:	85 c0                	test   %eax,%eax
    1e5c:	78 6f                	js     1ecd <notify_server+0x152>
    1e5e:	48 8d 3d 73 18 00 00 	lea    0x1873(%rip),%rdi        # 36d8 <_IO_stdin_used+0x588>
    1e65:	e8 56 f0 ff ff       	callq  ec0 <puts@plt>
    1e6a:	48 8d 3d 4a 17 00 00 	lea    0x174a(%rip),%rdi        # 35bb <_IO_stdin_used+0x46b>
    1e71:	e8 4a f0 ff ff       	callq  ec0 <puts@plt>
    1e76:	48 8b 84 24 08 40 00 	mov    0x4008(%rsp),%rax
    1e7d:	00 
    1e7e:	64 48 33 04 25 28 00 	xor    %fs:0x28,%rax
    1e85:	00 00 
    1e87:	0f 85 07 01 00 00    	jne    1f94 <notify_server+0x219>
    1e8d:	48 81 c4 18 40 00 00 	add    $0x4018,%rsp
    1e94:	5b                   	pop    %rbx
    1e95:	5d                   	pop    %rbp
    1e96:	c3                   	retq   
    1e97:	48 8d 35 0a 18 00 00 	lea    0x180a(%rip),%rsi        # 36a8 <_IO_stdin_used+0x558>
    1e9e:	bf 01 00 00 00       	mov    $0x1,%edi
    1ea3:	b8 00 00 00 00       	mov    $0x0,%eax
    1ea8:	e8 33 f1 ff ff       	callq  fe0 <__printf_chk@plt>
    1ead:	bf 01 00 00 00       	mov    $0x1,%edi
    1eb2:	e8 79 f1 ff ff       	callq  1030 <exit@plt>
    1eb7:	ba ff ff ff ff       	mov    $0xffffffff,%edx
    1ebc:	e9 13 ff ff ff       	jmpq   1dd4 <notify_server+0x59>
    1ec1:	48 8d 2d c6 16 00 00 	lea    0x16c6(%rip),%rbp        # 358e <_IO_stdin_used+0x43e>
    1ec8:	e9 16 ff ff ff       	jmpq   1de3 <notify_server+0x68>
    1ecd:	48 8d 94 24 00 20 00 	lea    0x2000(%rsp),%rdx
    1ed4:	00 
    1ed5:	48 8d 35 d3 16 00 00 	lea    0x16d3(%rip),%rsi        # 35af <_IO_stdin_used+0x45f>
    1edc:	bf 01 00 00 00       	mov    $0x1,%edi
    1ee1:	b8 00 00 00 00       	mov    $0x0,%eax
    1ee6:	e8 f5 f0 ff ff       	callq  fe0 <__printf_chk@plt>
    1eeb:	bf 01 00 00 00       	mov    $0x1,%edi
    1ef0:	e8 3b f1 ff ff       	callq  1030 <exit@plt>
    1ef5:	48 8d 3d c9 16 00 00 	lea    0x16c9(%rip),%rdi        # 35c5 <_IO_stdin_used+0x475>
    1efc:	e8 bf ef ff ff       	callq  ec0 <puts@plt>
    1f01:	e9 70 ff ff ff       	jmpq   1e76 <notify_server+0xfb>
    1f06:	48 89 ea             	mov    %rbp,%rdx
    1f09:	48 8d 35 00 18 00 00 	lea    0x1800(%rip),%rsi        # 3710 <_IO_stdin_used+0x5c0>
    1f10:	bf 01 00 00 00       	mov    $0x1,%edi
    1f15:	b8 00 00 00 00       	mov    $0x0,%eax
    1f1a:	e8 c1 f0 ff ff       	callq  fe0 <__printf_chk@plt>
    1f1f:	48 8b 15 fa 30 20 00 	mov    0x2030fa(%rip),%rdx        # 205020 <user_id>
    1f26:	48 8d 35 9f 16 00 00 	lea    0x169f(%rip),%rsi        # 35cc <_IO_stdin_used+0x47c>
    1f2d:	bf 01 00 00 00       	mov    $0x1,%edi
    1f32:	b8 00 00 00 00       	mov    $0x0,%eax
    1f37:	e8 a4 f0 ff ff       	callq  fe0 <__printf_chk@plt>
    1f3c:	48 8b 15 ed 30 20 00 	mov    0x2030ed(%rip),%rdx        # 205030 <course>
    1f43:	48 8d 35 8f 16 00 00 	lea    0x168f(%rip),%rsi        # 35d9 <_IO_stdin_used+0x489>
    1f4a:	bf 01 00 00 00       	mov    $0x1,%edi
    1f4f:	b8 00 00 00 00       	mov    $0x0,%eax
    1f54:	e8 87 f0 ff ff       	callq  fe0 <__printf_chk@plt>
    1f59:	48 8b 15 c8 30 20 00 	mov    0x2030c8(%rip),%rdx        # 205028 <lab>
    1f60:	48 8d 35 7e 16 00 00 	lea    0x167e(%rip),%rsi        # 35e5 <_IO_stdin_used+0x495>
    1f67:	bf 01 00 00 00       	mov    $0x1,%edi
    1f6c:	b8 00 00 00 00       	mov    $0x0,%eax
    1f71:	e8 6a f0 ff ff       	callq  fe0 <__printf_chk@plt>
    1f76:	48 89 e2             	mov    %rsp,%rdx
    1f79:	48 8d 35 6e 16 00 00 	lea    0x166e(%rip),%rsi        # 35ee <_IO_stdin_used+0x49e>
    1f80:	bf 01 00 00 00       	mov    $0x1,%edi
    1f85:	b8 00 00 00 00       	mov    $0x0,%eax
    1f8a:	e8 51 f0 ff ff       	callq  fe0 <__printf_chk@plt>
    1f8f:	e9 e2 fe ff ff       	jmpq   1e76 <notify_server+0xfb>
    1f94:	e8 47 ef ff ff       	callq  ee0 <__stack_chk_fail@plt>

0000000000001f99 <validate>:
    1f99:	53                   	push   %rbx
    1f9a:	89 fb                	mov    %edi,%ebx
    1f9c:	83 3d 45 34 20 00 00 	cmpl   $0x0,0x203445(%rip)        # 2053e8 <is_checker>
    1fa3:	74 72                	je     2017 <validate+0x7e>
    1fa5:	39 3d 31 34 20 00    	cmp    %edi,0x203431(%rip)        # 2053dc <vlevel>
    1fab:	75 32                	jne    1fdf <validate+0x46>
    1fad:	8b 15 25 34 20 00    	mov    0x203425(%rip),%edx        # 2053d8 <check_level>
    1fb3:	39 fa                	cmp    %edi,%edx
    1fb5:	75 3e                	jne    1ff5 <validate+0x5c>
    1fb7:	0f be 15 4a 40 20 00 	movsbl 0x20404a(%rip),%edx        # 206008 <target_prefix>
    1fbe:	4c 8d 05 3b 34 20 00 	lea    0x20343b(%rip),%r8        # 205400 <gets_buf>
    1fc5:	89 f9                	mov    %edi,%ecx
    1fc7:	48 8d 35 4a 16 00 00 	lea    0x164a(%rip),%rsi        # 3618 <_IO_stdin_used+0x4c8>
    1fce:	bf 01 00 00 00       	mov    $0x1,%edi
    1fd3:	b8 00 00 00 00       	mov    $0x0,%eax
    1fd8:	e8 03 f0 ff ff       	callq  fe0 <__printf_chk@plt>
    1fdd:	5b                   	pop    %rbx
    1fde:	c3                   	retq   
    1fdf:	48 8d 3d 14 16 00 00 	lea    0x1614(%rip),%rdi        # 35fa <_IO_stdin_used+0x4aa>
    1fe6:	e8 d5 ee ff ff       	callq  ec0 <puts@plt>
    1feb:	b8 00 00 00 00       	mov    $0x0,%eax
    1ff0:	e8 fc fc ff ff       	callq  1cf1 <check_fail>
    1ff5:	89 f9                	mov    %edi,%ecx
    1ff7:	48 8d 35 3a 17 00 00 	lea    0x173a(%rip),%rsi        # 3738 <_IO_stdin_used+0x5e8>
    1ffe:	bf 01 00 00 00       	mov    $0x1,%edi
    2003:	b8 00 00 00 00       	mov    $0x0,%eax
    2008:	e8 d3 ef ff ff       	callq  fe0 <__printf_chk@plt>
    200d:	b8 00 00 00 00       	mov    $0x0,%eax
    2012:	e8 da fc ff ff       	callq  1cf1 <check_fail>
    2017:	39 3d bf 33 20 00    	cmp    %edi,0x2033bf(%rip)        # 2053dc <vlevel>
    201d:	74 1a                	je     2039 <validate+0xa0>
    201f:	48 8d 3d d4 15 00 00 	lea    0x15d4(%rip),%rdi        # 35fa <_IO_stdin_used+0x4aa>
    2026:	e8 95 ee ff ff       	callq  ec0 <puts@plt>
    202b:	89 de                	mov    %ebx,%esi
    202d:	bf 00 00 00 00       	mov    $0x0,%edi
    2032:	e8 44 fd ff ff       	callq  1d7b <notify_server>
    2037:	eb a4                	jmp    1fdd <validate+0x44>
    2039:	0f be 0d c8 3f 20 00 	movsbl 0x203fc8(%rip),%ecx        # 206008 <target_prefix>
    2040:	89 fa                	mov    %edi,%edx
    2042:	48 8d 35 17 17 00 00 	lea    0x1717(%rip),%rsi        # 3760 <_IO_stdin_used+0x610>
    2049:	bf 01 00 00 00       	mov    $0x1,%edi
    204e:	b8 00 00 00 00       	mov    $0x0,%eax
    2053:	e8 88 ef ff ff       	callq  fe0 <__printf_chk@plt>
    2058:	89 de                	mov    %ebx,%esi
    205a:	bf 01 00 00 00       	mov    $0x1,%edi
    205f:	e8 17 fd ff ff       	callq  1d7b <notify_server>
    2064:	e9 74 ff ff ff       	jmpq   1fdd <validate+0x44>

0000000000002069 <fail>:
    2069:	48 83 ec 08          	sub    $0x8,%rsp
    206d:	83 3d 74 33 20 00 00 	cmpl   $0x0,0x203374(%rip)        # 2053e8 <is_checker>
    2074:	75 11                	jne    2087 <fail+0x1e>
    2076:	89 fe                	mov    %edi,%esi
    2078:	bf 00 00 00 00       	mov    $0x0,%edi
    207d:	e8 f9 fc ff ff       	callq  1d7b <notify_server>
    2082:	48 83 c4 08          	add    $0x8,%rsp
    2086:	c3                   	retq   
    2087:	b8 00 00 00 00       	mov    $0x0,%eax
    208c:	e8 60 fc ff ff       	callq  1cf1 <check_fail>

0000000000002091 <bushandler>:
    2091:	48 83 ec 08          	sub    $0x8,%rsp
    2095:	83 3d 4c 33 20 00 00 	cmpl   $0x0,0x20334c(%rip)        # 2053e8 <is_checker>
    209c:	74 16                	je     20b4 <bushandler+0x23>
    209e:	48 8d 3d 88 15 00 00 	lea    0x1588(%rip),%rdi        # 362d <_IO_stdin_used+0x4dd>
    20a5:	e8 16 ee ff ff       	callq  ec0 <puts@plt>
    20aa:	b8 00 00 00 00       	mov    $0x0,%eax
    20af:	e8 3d fc ff ff       	callq  1cf1 <check_fail>
    20b4:	48 8d 3d dd 16 00 00 	lea    0x16dd(%rip),%rdi        # 3798 <_IO_stdin_used+0x648>
    20bb:	e8 00 ee ff ff       	callq  ec0 <puts@plt>
    20c0:	48 8d 3d 70 15 00 00 	lea    0x1570(%rip),%rdi        # 3637 <_IO_stdin_used+0x4e7>
    20c7:	e8 f4 ed ff ff       	callq  ec0 <puts@plt>
    20cc:	be 00 00 00 00       	mov    $0x0,%esi
    20d1:	bf 00 00 00 00       	mov    $0x0,%edi
    20d6:	e8 a0 fc ff ff       	callq  1d7b <notify_server>
    20db:	bf 01 00 00 00       	mov    $0x1,%edi
    20e0:	e8 4b ef ff ff       	callq  1030 <exit@plt>

00000000000020e5 <seghandler>:
    20e5:	48 83 ec 08          	sub    $0x8,%rsp
    20e9:	83 3d f8 32 20 00 00 	cmpl   $0x0,0x2032f8(%rip)        # 2053e8 <is_checker>
    20f0:	74 16                	je     2108 <seghandler+0x23>
    20f2:	48 8d 3d 54 15 00 00 	lea    0x1554(%rip),%rdi        # 364d <_IO_stdin_used+0x4fd>
    20f9:	e8 c2 ed ff ff       	callq  ec0 <puts@plt>
    20fe:	b8 00 00 00 00       	mov    $0x0,%eax
    2103:	e8 e9 fb ff ff       	callq  1cf1 <check_fail>
    2108:	48 8d 3d a9 16 00 00 	lea    0x16a9(%rip),%rdi        # 37b8 <_IO_stdin_used+0x668>
    210f:	e8 ac ed ff ff       	callq  ec0 <puts@plt>
    2114:	48 8d 3d 1c 15 00 00 	lea    0x151c(%rip),%rdi        # 3637 <_IO_stdin_used+0x4e7>
    211b:	e8 a0 ed ff ff       	callq  ec0 <puts@plt>
    2120:	be 00 00 00 00       	mov    $0x0,%esi
    2125:	bf 00 00 00 00       	mov    $0x0,%edi
    212a:	e8 4c fc ff ff       	callq  1d7b <notify_server>
    212f:	bf 01 00 00 00       	mov    $0x1,%edi
    2134:	e8 f7 ee ff ff       	callq  1030 <exit@plt>

0000000000002139 <illegalhandler>:
    2139:	48 83 ec 08          	sub    $0x8,%rsp
    213d:	83 3d a4 32 20 00 00 	cmpl   $0x0,0x2032a4(%rip)        # 2053e8 <is_checker>
    2144:	74 16                	je     215c <illegalhandler+0x23>
    2146:	48 8d 3d 13 15 00 00 	lea    0x1513(%rip),%rdi        # 3660 <_IO_stdin_used+0x510>
    214d:	e8 6e ed ff ff       	callq  ec0 <puts@plt>
    2152:	b8 00 00 00 00       	mov    $0x0,%eax
    2157:	e8 95 fb ff ff       	callq  1cf1 <check_fail>
    215c:	48 8d 3d 7d 16 00 00 	lea    0x167d(%rip),%rdi        # 37e0 <_IO_stdin_used+0x690>
    2163:	e8 58 ed ff ff       	callq  ec0 <puts@plt>
    2168:	48 8d 3d c8 14 00 00 	lea    0x14c8(%rip),%rdi        # 3637 <_IO_stdin_used+0x4e7>
    216f:	e8 4c ed ff ff       	callq  ec0 <puts@plt>
    2174:	be 00 00 00 00       	mov    $0x0,%esi
    2179:	bf 00 00 00 00       	mov    $0x0,%edi
    217e:	e8 f8 fb ff ff       	callq  1d7b <notify_server>
    2183:	bf 01 00 00 00       	mov    $0x1,%edi
    2188:	e8 a3 ee ff ff       	callq  1030 <exit@plt>

000000000000218d <sigalrmhandler>:
    218d:	48 83 ec 08          	sub    $0x8,%rsp
    2191:	83 3d 50 32 20 00 00 	cmpl   $0x0,0x203250(%rip)        # 2053e8 <is_checker>
    2198:	74 16                	je     21b0 <sigalrmhandler+0x23>
    219a:	48 8d 3d d3 14 00 00 	lea    0x14d3(%rip),%rdi        # 3674 <_IO_stdin_used+0x524>
    21a1:	e8 1a ed ff ff       	callq  ec0 <puts@plt>
    21a6:	b8 00 00 00 00       	mov    $0x0,%eax
    21ab:	e8 41 fb ff ff       	callq  1cf1 <check_fail>
    21b0:	ba 05 00 00 00       	mov    $0x5,%edx
    21b5:	48 8d 35 54 16 00 00 	lea    0x1654(%rip),%rsi        # 3810 <_IO_stdin_used+0x6c0>
    21bc:	bf 01 00 00 00       	mov    $0x1,%edi
    21c1:	b8 00 00 00 00       	mov    $0x0,%eax
    21c6:	e8 15 ee ff ff       	callq  fe0 <__printf_chk@plt>
    21cb:	be 00 00 00 00       	mov    $0x0,%esi
    21d0:	bf 00 00 00 00       	mov    $0x0,%edi
    21d5:	e8 a1 fb ff ff       	callq  1d7b <notify_server>
    21da:	bf 01 00 00 00       	mov    $0x1,%edi
    21df:	e8 4c ee ff ff       	callq  1030 <exit@plt>

00000000000021e4 <launch>:
    21e4:	55                   	push   %rbp
    21e5:	48 89 e5             	mov    %rsp,%rbp
    21e8:	48 83 ec 10          	sub    $0x10,%rsp
    21ec:	48 89 fa             	mov    %rdi,%rdx
    21ef:	64 48 8b 04 25 28 00 	mov    %fs:0x28,%rax
    21f6:	00 00 
    21f8:	48 89 45 f8          	mov    %rax,-0x8(%rbp)
    21fc:	31 c0                	xor    %eax,%eax
    21fe:	48 8d 47 1e          	lea    0x1e(%rdi),%rax
    2202:	48 83 e0 f0          	and    $0xfffffffffffffff0,%rax
    2206:	48 29 c4             	sub    %rax,%rsp
    2209:	48 8d 7c 24 0f       	lea    0xf(%rsp),%rdi
    220e:	48 83 e7 f0          	and    $0xfffffffffffffff0,%rdi
    2212:	be f4 00 00 00       	mov    $0xf4,%esi
    2217:	e8 e4 ec ff ff       	callq  f00 <memset@plt>
    221c:	48 8b 05 5d 31 20 00 	mov    0x20315d(%rip),%rax        # 205380 <stdin@@GLIBC_2.2.5>
    2223:	48 39 05 a6 31 20 00 	cmp    %rax,0x2031a6(%rip)        # 2053d0 <infile>
    222a:	74 3a                	je     2266 <launch+0x82>
    222c:	c7 05 a6 31 20 00 00 	movl   $0x0,0x2031a6(%rip)        # 2053dc <vlevel>
    2233:	00 00 00 
    2236:	b8 00 00 00 00       	mov    $0x0,%eax
    223b:	e8 16 fa ff ff       	callq  1c56 <test>
    2240:	83 3d a1 31 20 00 00 	cmpl   $0x0,0x2031a1(%rip)        # 2053e8 <is_checker>
    2247:	75 35                	jne    227e <launch+0x9a>
    2249:	48 8d 3d 44 14 00 00 	lea    0x1444(%rip),%rdi        # 3694 <_IO_stdin_used+0x544>
    2250:	e8 6b ec ff ff       	callq  ec0 <puts@plt>
    2255:	48 8b 45 f8          	mov    -0x8(%rbp),%rax
    2259:	64 48 33 04 25 28 00 	xor    %fs:0x28,%rax
    2260:	00 00 
    2262:	75 30                	jne    2294 <launch+0xb0>
    2264:	c9                   	leaveq 
    2265:	c3                   	retq   
    2266:	48 8d 35 0f 14 00 00 	lea    0x140f(%rip),%rsi        # 367c <_IO_stdin_used+0x52c>
    226d:	bf 01 00 00 00       	mov    $0x1,%edi
    2272:	b8 00 00 00 00       	mov    $0x0,%eax
    2277:	e8 64 ed ff ff       	callq  fe0 <__printf_chk@plt>
    227c:	eb ae                	jmp    222c <launch+0x48>
    227e:	48 8d 3d 04 14 00 00 	lea    0x1404(%rip),%rdi        # 3689 <_IO_stdin_used+0x539>
    2285:	e8 36 ec ff ff       	callq  ec0 <puts@plt>
    228a:	b8 00 00 00 00       	mov    $0x0,%eax
    228f:	e8 5d fa ff ff       	callq  1cf1 <check_fail>
    2294:	e8 47 ec ff ff       	callq  ee0 <__stack_chk_fail@plt>

0000000000002299 <stable_launch>:
    2299:	53                   	push   %rbx
    229a:	48 89 3d 27 31 20 00 	mov    %rdi,0x203127(%rip)        # 2053c8 <global_offset>
    22a1:	41 b9 00 00 00 00    	mov    $0x0,%r9d
    22a7:	41 b8 00 00 00 00    	mov    $0x0,%r8d
    22ad:	b9 32 01 00 00       	mov    $0x132,%ecx
    22b2:	ba 07 00 00 00       	mov    $0x7,%edx
    22b7:	be 00 00 10 00       	mov    $0x100000,%esi
    22bc:	bf 00 60 58 55       	mov    $0x55586000,%edi
    22c1:	e8 2a ec ff ff       	callq  ef0 <mmap@plt>
    22c6:	48 89 c3             	mov    %rax,%rbx
    22c9:	48 3d 00 60 58 55    	cmp    $0x55586000,%rax
    22cf:	75 43                	jne    2314 <stable_launch+0x7b>
    22d1:	48 8d 90 f8 ff 0f 00 	lea    0xffff8(%rax),%rdx
    22d8:	48 89 15 31 3d 20 00 	mov    %rdx,0x203d31(%rip)        # 206010 <stack_top>
    22df:	48 89 e0             	mov    %rsp,%rax
    22e2:	48 89 d4             	mov    %rdx,%rsp
    22e5:	48 89 c2             	mov    %rax,%rdx
    22e8:	48 89 15 d1 30 20 00 	mov    %rdx,0x2030d1(%rip)        # 2053c0 <global_save_stack>
    22ef:	48 8b 3d d2 30 20 00 	mov    0x2030d2(%rip),%rdi        # 2053c8 <global_offset>
    22f6:	e8 e9 fe ff ff       	callq  21e4 <launch>
    22fb:	48 8b 05 be 30 20 00 	mov    0x2030be(%rip),%rax        # 2053c0 <global_save_stack>
    2302:	48 89 c4             	mov    %rax,%rsp
    2305:	be 00 00 10 00       	mov    $0x100000,%esi
    230a:	48 89 df             	mov    %rbx,%rdi
    230d:	e8 be ec ff ff       	callq  fd0 <munmap@plt>
    2312:	5b                   	pop    %rbx
    2313:	c3                   	retq   
    2314:	be 00 00 10 00       	mov    $0x100000,%esi
    2319:	48 89 c7             	mov    %rax,%rdi
    231c:	e8 af ec ff ff       	callq  fd0 <munmap@plt>
    2321:	b9 00 60 58 55       	mov    $0x55586000,%ecx
    2326:	48 8d 15 1b 15 00 00 	lea    0x151b(%rip),%rdx        # 3848 <_IO_stdin_used+0x6f8>
    232d:	be 01 00 00 00       	mov    $0x1,%esi
    2332:	48 8b 3d 67 30 20 00 	mov    0x203067(%rip),%rdi        # 2053a0 <stderr@@GLIBC_2.2.5>
    2339:	b8 00 00 00 00       	mov    $0x0,%eax
    233e:	e8 0d ed ff ff       	callq  1050 <__fprintf_chk@plt>
    2343:	bf 01 00 00 00       	mov    $0x1,%edi
    2348:	e8 e3 ec ff ff       	callq  1030 <exit@plt>

000000000000234d <rio_readinitb>:
    234d:	89 37                	mov    %esi,(%rdi)
    234f:	c7 47 04 00 00 00 00 	movl   $0x0,0x4(%rdi)
    2356:	48 8d 47 10          	lea    0x10(%rdi),%rax
    235a:	48 89 47 08          	mov    %rax,0x8(%rdi)
    235e:	c3                   	retq   

000000000000235f <sigalrm_handler>:
    235f:	48 83 ec 08          	sub    $0x8,%rsp
    2363:	b9 00 00 00 00       	mov    $0x0,%ecx
    2368:	48 8d 15 11 15 00 00 	lea    0x1511(%rip),%rdx        # 3880 <trans_char+0x10>
    236f:	be 01 00 00 00       	mov    $0x1,%esi
    2374:	48 8b 3d 25 30 20 00 	mov    0x203025(%rip),%rdi        # 2053a0 <stderr@@GLIBC_2.2.5>
    237b:	b8 00 00 00 00       	mov    $0x0,%eax
    2380:	e8 cb ec ff ff       	callq  1050 <__fprintf_chk@plt>
    2385:	bf 01 00 00 00       	mov    $0x1,%edi
    238a:	e8 a1 ec ff ff       	callq  1030 <exit@plt>

000000000000238f <rio_writen>:
    238f:	41 55                	push   %r13
    2391:	41 54                	push   %r12
    2393:	55                   	push   %rbp
    2394:	53                   	push   %rbx
    2395:	48 83 ec 08          	sub    $0x8,%rsp
    2399:	41 89 fc             	mov    %edi,%r12d
    239c:	48 89 f5             	mov    %rsi,%rbp
    239f:	49 89 d5             	mov    %rdx,%r13
    23a2:	48 89 d3             	mov    %rdx,%rbx
    23a5:	eb 06                	jmp    23ad <rio_writen+0x1e>
    23a7:	48 29 c3             	sub    %rax,%rbx
    23aa:	48 01 c5             	add    %rax,%rbp
    23ad:	48 85 db             	test   %rbx,%rbx
    23b0:	74 24                	je     23d6 <rio_writen+0x47>
    23b2:	48 89 da             	mov    %rbx,%rdx
    23b5:	48 89 ee             	mov    %rbp,%rsi
    23b8:	44 89 e7             	mov    %r12d,%edi
    23bb:	e8 10 eb ff ff       	callq  ed0 <write@plt>
    23c0:	48 85 c0             	test   %rax,%rax
    23c3:	7f e2                	jg     23a7 <rio_writen+0x18>
    23c5:	e8 b6 ea ff ff       	callq  e80 <__errno_location@plt>
    23ca:	83 38 04             	cmpl   $0x4,(%rax)
    23cd:	75 15                	jne    23e4 <rio_writen+0x55>
    23cf:	b8 00 00 00 00       	mov    $0x0,%eax
    23d4:	eb d1                	jmp    23a7 <rio_writen+0x18>
    23d6:	4c 89 e8             	mov    %r13,%rax
    23d9:	48 83 c4 08          	add    $0x8,%rsp
    23dd:	5b                   	pop    %rbx
    23de:	5d                   	pop    %rbp
    23df:	41 5c                	pop    %r12
    23e1:	41 5d                	pop    %r13
    23e3:	c3                   	retq   
    23e4:	48 c7 c0 ff ff ff ff 	mov    $0xffffffffffffffff,%rax
    23eb:	eb ec                	jmp    23d9 <rio_writen+0x4a>

00000000000023ed <rio_read>:
    23ed:	41 55                	push   %r13
    23ef:	41 54                	push   %r12
    23f1:	55                   	push   %rbp
    23f2:	53                   	push   %rbx
    23f3:	48 83 ec 08          	sub    $0x8,%rsp
    23f7:	48 89 fb             	mov    %rdi,%rbx
    23fa:	49 89 f5             	mov    %rsi,%r13
    23fd:	49 89 d4             	mov    %rdx,%r12
    2400:	eb 0a                	jmp    240c <rio_read+0x1f>
    2402:	e8 79 ea ff ff       	callq  e80 <__errno_location@plt>
    2407:	83 38 04             	cmpl   $0x4,(%rax)
    240a:	75 5c                	jne    2468 <rio_read+0x7b>
    240c:	8b 6b 04             	mov    0x4(%rbx),%ebp
    240f:	85 ed                	test   %ebp,%ebp
    2411:	7f 24                	jg     2437 <rio_read+0x4a>
    2413:	48 8d 6b 10          	lea    0x10(%rbx),%rbp
    2417:	8b 3b                	mov    (%rbx),%edi
    2419:	ba 00 20 00 00       	mov    $0x2000,%edx
    241e:	48 89 ee             	mov    %rbp,%rsi
    2421:	e8 0a eb ff ff       	callq  f30 <read@plt>
    2426:	89 43 04             	mov    %eax,0x4(%rbx)
    2429:	85 c0                	test   %eax,%eax
    242b:	78 d5                	js     2402 <rio_read+0x15>
    242d:	85 c0                	test   %eax,%eax
    242f:	74 40                	je     2471 <rio_read+0x84>
    2431:	48 89 6b 08          	mov    %rbp,0x8(%rbx)
    2435:	eb d5                	jmp    240c <rio_read+0x1f>
    2437:	89 e8                	mov    %ebp,%eax
    2439:	4c 39 e0             	cmp    %r12,%rax
    243c:	72 03                	jb     2441 <rio_read+0x54>
    243e:	44 89 e5             	mov    %r12d,%ebp
    2441:	4c 63 e5             	movslq %ebp,%r12
    2444:	48 8b 73 08          	mov    0x8(%rbx),%rsi
    2448:	4c 89 e2             	mov    %r12,%rdx
    244b:	4c 89 ef             	mov    %r13,%rdi
    244e:	e8 2d eb ff ff       	callq  f80 <memcpy@plt>
    2453:	4c 01 63 08          	add    %r12,0x8(%rbx)
    2457:	29 6b 04             	sub    %ebp,0x4(%rbx)
    245a:	4c 89 e0             	mov    %r12,%rax
    245d:	48 83 c4 08          	add    $0x8,%rsp
    2461:	5b                   	pop    %rbx
    2462:	5d                   	pop    %rbp
    2463:	41 5c                	pop    %r12
    2465:	41 5d                	pop    %r13
    2467:	c3                   	retq   
    2468:	48 c7 c0 ff ff ff ff 	mov    $0xffffffffffffffff,%rax
    246f:	eb ec                	jmp    245d <rio_read+0x70>
    2471:	b8 00 00 00 00       	mov    $0x0,%eax
    2476:	eb e5                	jmp    245d <rio_read+0x70>

0000000000002478 <rio_readlineb>:
    2478:	41 55                	push   %r13
    247a:	41 54                	push   %r12
    247c:	55                   	push   %rbp
    247d:	53                   	push   %rbx
    247e:	48 83 ec 18          	sub    $0x18,%rsp
    2482:	49 89 fd             	mov    %rdi,%r13
    2485:	48 89 f5             	mov    %rsi,%rbp
    2488:	49 89 d4             	mov    %rdx,%r12
    248b:	64 48 8b 04 25 28 00 	mov    %fs:0x28,%rax
    2492:	00 00 
    2494:	48 89 44 24 08       	mov    %rax,0x8(%rsp)
    2499:	31 c0                	xor    %eax,%eax
    249b:	bb 01 00 00 00       	mov    $0x1,%ebx
    24a0:	4c 39 e3             	cmp    %r12,%rbx
    24a3:	73 47                	jae    24ec <rio_readlineb+0x74>
    24a5:	48 8d 74 24 07       	lea    0x7(%rsp),%rsi
    24aa:	ba 01 00 00 00       	mov    $0x1,%edx
    24af:	4c 89 ef             	mov    %r13,%rdi
    24b2:	e8 36 ff ff ff       	callq  23ed <rio_read>
    24b7:	83 f8 01             	cmp    $0x1,%eax
    24ba:	75 1c                	jne    24d8 <rio_readlineb+0x60>
    24bc:	48 8d 45 01          	lea    0x1(%rbp),%rax
    24c0:	0f b6 54 24 07       	movzbl 0x7(%rsp),%edx
    24c5:	88 55 00             	mov    %dl,0x0(%rbp)
    24c8:	80 7c 24 07 0a       	cmpb   $0xa,0x7(%rsp)
    24cd:	74 1a                	je     24e9 <rio_readlineb+0x71>
    24cf:	48 83 c3 01          	add    $0x1,%rbx
    24d3:	48 89 c5             	mov    %rax,%rbp
    24d6:	eb c8                	jmp    24a0 <rio_readlineb+0x28>
    24d8:	85 c0                	test   %eax,%eax
    24da:	75 32                	jne    250e <rio_readlineb+0x96>
    24dc:	48 83 fb 01          	cmp    $0x1,%rbx
    24e0:	75 0a                	jne    24ec <rio_readlineb+0x74>
    24e2:	b8 00 00 00 00       	mov    $0x0,%eax
    24e7:	eb 0a                	jmp    24f3 <rio_readlineb+0x7b>
    24e9:	48 89 c5             	mov    %rax,%rbp
    24ec:	c6 45 00 00          	movb   $0x0,0x0(%rbp)
    24f0:	48 89 d8             	mov    %rbx,%rax
    24f3:	48 8b 4c 24 08       	mov    0x8(%rsp),%rcx
    24f8:	64 48 33 0c 25 28 00 	xor    %fs:0x28,%rcx
    24ff:	00 00 
    2501:	75 14                	jne    2517 <rio_readlineb+0x9f>
    2503:	48 83 c4 18          	add    $0x18,%rsp
    2507:	5b                   	pop    %rbx
    2508:	5d                   	pop    %rbp
    2509:	41 5c                	pop    %r12
    250b:	41 5d                	pop    %r13
    250d:	c3                   	retq   
    250e:	48 c7 c0 ff ff ff ff 	mov    $0xffffffffffffffff,%rax
    2515:	eb dc                	jmp    24f3 <rio_readlineb+0x7b>
    2517:	e8 c4 e9 ff ff       	callq  ee0 <__stack_chk_fail@plt>

000000000000251c <urlencode>:
    251c:	41 54                	push   %r12
    251e:	55                   	push   %rbp
    251f:	53                   	push   %rbx
    2520:	48 83 ec 10          	sub    $0x10,%rsp
    2524:	48 89 fb             	mov    %rdi,%rbx
    2527:	48 89 f5             	mov    %rsi,%rbp
    252a:	64 48 8b 04 25 28 00 	mov    %fs:0x28,%rax
    2531:	00 00 
    2533:	48 89 44 24 08       	mov    %rax,0x8(%rsp)
    2538:	31 c0                	xor    %eax,%eax
    253a:	48 c7 c1 ff ff ff ff 	mov    $0xffffffffffffffff,%rcx
    2541:	f2 ae                	repnz scas %es:(%rdi),%al
    2543:	48 89 ce             	mov    %rcx,%rsi
    2546:	48 f7 d6             	not    %rsi
    2549:	8d 46 ff             	lea    -0x1(%rsi),%eax
    254c:	eb 0f                	jmp    255d <urlencode+0x41>
    254e:	44 88 45 00          	mov    %r8b,0x0(%rbp)
    2552:	48 8d 6d 01          	lea    0x1(%rbp),%rbp
    2556:	48 83 c3 01          	add    $0x1,%rbx
    255a:	44 89 e0             	mov    %r12d,%eax
    255d:	44 8d 60 ff          	lea    -0x1(%rax),%r12d
    2561:	85 c0                	test   %eax,%eax
    2563:	0f 84 a8 00 00 00    	je     2611 <urlencode+0xf5>
    2569:	44 0f b6 03          	movzbl (%rbx),%r8d
    256d:	41 80 f8 2a          	cmp    $0x2a,%r8b
    2571:	0f 94 c2             	sete   %dl
    2574:	41 80 f8 2d          	cmp    $0x2d,%r8b
    2578:	0f 94 c0             	sete   %al
    257b:	08 c2                	or     %al,%dl
    257d:	75 cf                	jne    254e <urlencode+0x32>
    257f:	41 80 f8 2e          	cmp    $0x2e,%r8b
    2583:	74 c9                	je     254e <urlencode+0x32>
    2585:	41 80 f8 5f          	cmp    $0x5f,%r8b
    2589:	74 c3                	je     254e <urlencode+0x32>
    258b:	41 8d 40 d0          	lea    -0x30(%r8),%eax
    258f:	3c 09                	cmp    $0x9,%al
    2591:	76 bb                	jbe    254e <urlencode+0x32>
    2593:	41 8d 40 bf          	lea    -0x41(%r8),%eax
    2597:	3c 19                	cmp    $0x19,%al
    2599:	76 b3                	jbe    254e <urlencode+0x32>
    259b:	41 8d 40 9f          	lea    -0x61(%r8),%eax
    259f:	3c 19                	cmp    $0x19,%al
    25a1:	76 ab                	jbe    254e <urlencode+0x32>
    25a3:	41 80 f8 20          	cmp    $0x20,%r8b
    25a7:	74 56                	je     25ff <urlencode+0xe3>
    25a9:	41 8d 40 e0          	lea    -0x20(%r8),%eax
    25ad:	3c 5f                	cmp    $0x5f,%al
    25af:	0f 96 c2             	setbe  %dl
    25b2:	41 80 f8 09          	cmp    $0x9,%r8b
    25b6:	0f 94 c0             	sete   %al
    25b9:	08 c2                	or     %al,%dl
    25bb:	74 4f                	je     260c <urlencode+0xf0>
    25bd:	48 89 e7             	mov    %rsp,%rdi
    25c0:	45 0f b6 c0          	movzbl %r8b,%r8d
    25c4:	48 8d 0d 4d 13 00 00 	lea    0x134d(%rip),%rcx        # 3918 <trans_char+0xa8>
    25cb:	ba 08 00 00 00       	mov    $0x8,%edx
    25d0:	be 01 00 00 00       	mov    $0x1,%esi
    25d5:	b8 00 00 00 00       	mov    $0x0,%eax
    25da:	e8 81 ea ff ff       	callq  1060 <__sprintf_chk@plt>
    25df:	0f b6 04 24          	movzbl (%rsp),%eax
    25e3:	88 45 00             	mov    %al,0x0(%rbp)
    25e6:	0f b6 44 24 01       	movzbl 0x1(%rsp),%eax
    25eb:	88 45 01             	mov    %al,0x1(%rbp)
    25ee:	0f b6 44 24 02       	movzbl 0x2(%rsp),%eax
    25f3:	88 45 02             	mov    %al,0x2(%rbp)
    25f6:	48 8d 6d 03          	lea    0x3(%rbp),%rbp
    25fa:	e9 57 ff ff ff       	jmpq   2556 <urlencode+0x3a>
    25ff:	c6 45 00 2b          	movb   $0x2b,0x0(%rbp)
    2603:	48 8d 6d 01          	lea    0x1(%rbp),%rbp
    2607:	e9 4a ff ff ff       	jmpq   2556 <urlencode+0x3a>
    260c:	b8 ff ff ff ff       	mov    $0xffffffff,%eax
    2611:	48 8b 74 24 08       	mov    0x8(%rsp),%rsi
    2616:	64 48 33 34 25 28 00 	xor    %fs:0x28,%rsi
    261d:	00 00 
    261f:	75 09                	jne    262a <urlencode+0x10e>
    2621:	48 83 c4 10          	add    $0x10,%rsp
    2625:	5b                   	pop    %rbx
    2626:	5d                   	pop    %rbp
    2627:	41 5c                	pop    %r12
    2629:	c3                   	retq   
    262a:	e8 b1 e8 ff ff       	callq  ee0 <__stack_chk_fail@plt>

000000000000262f <submitr>:
    262f:	41 57                	push   %r15
    2631:	41 56                	push   %r14
    2633:	41 55                	push   %r13
    2635:	41 54                	push   %r12
    2637:	55                   	push   %rbp
    2638:	53                   	push   %rbx
    2639:	48 81 ec 68 a0 00 00 	sub    $0xa068,%rsp
    2640:	49 89 fd             	mov    %rdi,%r13
    2643:	89 74 24 14          	mov    %esi,0x14(%rsp)
    2647:	49 89 d7             	mov    %rdx,%r15
    264a:	48 89 4c 24 08       	mov    %rcx,0x8(%rsp)
    264f:	4c 89 44 24 18       	mov    %r8,0x18(%rsp)
    2654:	4d 89 ce             	mov    %r9,%r14
    2657:	48 8b ac 24 a0 a0 00 	mov    0xa0a0(%rsp),%rbp
    265e:	00 
    265f:	64 48 8b 04 25 28 00 	mov    %fs:0x28,%rax
    2666:	00 00 
    2668:	48 89 84 24 58 a0 00 	mov    %rax,0xa058(%rsp)
    266f:	00 
    2670:	31 c0                	xor    %eax,%eax
    2672:	c7 44 24 2c 00 00 00 	movl   $0x0,0x2c(%rsp)
    2679:	00 
    267a:	ba 00 00 00 00       	mov    $0x0,%edx
    267f:	be 01 00 00 00       	mov    $0x1,%esi
    2684:	bf 02 00 00 00       	mov    $0x2,%edi
    2689:	e8 e2 e9 ff ff       	callq  1070 <socket@plt>
    268e:	85 c0                	test   %eax,%eax
    2690:	0f 88 a9 02 00 00    	js     293f <submitr+0x310>
    2696:	89 c3                	mov    %eax,%ebx
    2698:	4c 89 ef             	mov    %r13,%rdi
    269b:	e8 b0 e8 ff ff       	callq  f50 <gethostbyname@plt>
    26a0:	48 85 c0             	test   %rax,%rax
    26a3:	0f 84 e2 02 00 00    	je     298b <submitr+0x35c>
    26a9:	4c 8d 64 24 30       	lea    0x30(%rsp),%r12
    26ae:	48 c7 44 24 32 00 00 	movq   $0x0,0x32(%rsp)
    26b5:	00 00 
    26b7:	c7 44 24 3a 00 00 00 	movl   $0x0,0x3a(%rsp)
    26be:	00 
    26bf:	66 c7 44 24 3e 00 00 	movw   $0x0,0x3e(%rsp)
    26c6:	66 c7 44 24 30 02 00 	movw   $0x2,0x30(%rsp)
    26cd:	48 63 50 14          	movslq 0x14(%rax),%rdx
    26d1:	48 8b 40 18          	mov    0x18(%rax),%rax
    26d5:	48 8b 30             	mov    (%rax),%rsi
    26d8:	48 8d 7c 24 34       	lea    0x34(%rsp),%rdi
    26dd:	b9 0c 00 00 00       	mov    $0xc,%ecx
    26e2:	e8 79 e8 ff ff       	callq  f60 <__memmove_chk@plt>
    26e7:	0f b7 44 24 14       	movzwl 0x14(%rsp),%eax
    26ec:	66 c1 c8 08          	ror    $0x8,%ax
    26f0:	66 89 44 24 32       	mov    %ax,0x32(%rsp)
    26f5:	ba 10 00 00 00       	mov    $0x10,%edx
    26fa:	4c 89 e6             	mov    %r12,%rsi
    26fd:	89 df                	mov    %ebx,%edi
    26ff:	e8 3c e9 ff ff       	callq  1040 <connect@plt>
    2704:	85 c0                	test   %eax,%eax
    2706:	0f 88 e7 02 00 00    	js     29f3 <submitr+0x3c4>
    270c:	48 c7 c6 ff ff ff ff 	mov    $0xffffffffffffffff,%rsi
    2713:	b8 00 00 00 00       	mov    $0x0,%eax
    2718:	48 89 f1             	mov    %rsi,%rcx
    271b:	4c 89 f7             	mov    %r14,%rdi
    271e:	f2 ae                	repnz scas %es:(%rdi),%al
    2720:	48 89 ca             	mov    %rcx,%rdx
    2723:	48 f7 d2             	not    %rdx
    2726:	48 89 f1             	mov    %rsi,%rcx
    2729:	4c 89 ff             	mov    %r15,%rdi
    272c:	f2 ae                	repnz scas %es:(%rdi),%al
    272e:	48 f7 d1             	not    %rcx
    2731:	49 89 c8             	mov    %rcx,%r8
    2734:	48 89 f1             	mov    %rsi,%rcx
    2737:	48 8b 7c 24 08       	mov    0x8(%rsp),%rdi
    273c:	f2 ae                	repnz scas %es:(%rdi),%al
    273e:	48 f7 d1             	not    %rcx
    2741:	4d 8d 44 08 fe       	lea    -0x2(%r8,%rcx,1),%r8
    2746:	48 89 f1             	mov    %rsi,%rcx
    2749:	48 8b 7c 24 18       	mov    0x18(%rsp),%rdi
    274e:	f2 ae                	repnz scas %es:(%rdi),%al
    2750:	48 89 c8             	mov    %rcx,%rax
    2753:	48 f7 d0             	not    %rax
    2756:	49 8d 4c 00 ff       	lea    -0x1(%r8,%rax,1),%rcx
    275b:	48 8d 44 52 fd       	lea    -0x3(%rdx,%rdx,2),%rax
    2760:	48 8d 84 01 80 00 00 	lea    0x80(%rcx,%rax,1),%rax
    2767:	00 
    2768:	48 3d 00 20 00 00    	cmp    $0x2000,%rax
    276e:	0f 87 d9 02 00 00    	ja     2a4d <submitr+0x41e>
    2774:	48 8d b4 24 50 40 00 	lea    0x4050(%rsp),%rsi
    277b:	00 
    277c:	b9 00 04 00 00       	mov    $0x400,%ecx
    2781:	b8 00 00 00 00       	mov    $0x0,%eax
    2786:	48 89 f7             	mov    %rsi,%rdi
    2789:	f3 48 ab             	rep stos %rax,%es:(%rdi)
    278c:	4c 89 f7             	mov    %r14,%rdi
    278f:	e8 88 fd ff ff       	callq  251c <urlencode>
    2794:	85 c0                	test   %eax,%eax
    2796:	0f 88 24 03 00 00    	js     2ac0 <submitr+0x491>
    279c:	4c 8d a4 24 50 20 00 	lea    0x2050(%rsp),%r12
    27a3:	00 
    27a4:	41 55                	push   %r13
    27a6:	48 8d 84 24 58 40 00 	lea    0x4058(%rsp),%rax
    27ad:	00 
    27ae:	50                   	push   %rax
    27af:	4d 89 f9             	mov    %r15,%r9
    27b2:	4c 8b 44 24 18       	mov    0x18(%rsp),%r8
    27b7:	48 8d 0d ea 10 00 00 	lea    0x10ea(%rip),%rcx        # 38a8 <trans_char+0x38>
    27be:	ba 00 20 00 00       	mov    $0x2000,%edx
    27c3:	be 01 00 00 00       	mov    $0x1,%esi
    27c8:	4c 89 e7             	mov    %r12,%rdi
    27cb:	b8 00 00 00 00       	mov    $0x0,%eax
    27d0:	e8 8b e8 ff ff       	callq  1060 <__sprintf_chk@plt>
    27d5:	48 c7 c1 ff ff ff ff 	mov    $0xffffffffffffffff,%rcx
    27dc:	b8 00 00 00 00       	mov    $0x0,%eax
    27e1:	4c 89 e7             	mov    %r12,%rdi
    27e4:	f2 ae                	repnz scas %es:(%rdi),%al
    27e6:	48 89 ca             	mov    %rcx,%rdx
    27e9:	48 f7 d2             	not    %rdx
    27ec:	48 8d 52 ff          	lea    -0x1(%rdx),%rdx
    27f0:	4c 89 e6             	mov    %r12,%rsi
    27f3:	89 df                	mov    %ebx,%edi
    27f5:	e8 95 fb ff ff       	callq  238f <rio_writen>
    27fa:	48 83 c4 10          	add    $0x10,%rsp
    27fe:	48 85 c0             	test   %rax,%rax
    2801:	0f 88 44 03 00 00    	js     2b4b <submitr+0x51c>
    2807:	4c 8d 64 24 40       	lea    0x40(%rsp),%r12
    280c:	89 de                	mov    %ebx,%esi
    280e:	4c 89 e7             	mov    %r12,%rdi
    2811:	e8 37 fb ff ff       	callq  234d <rio_readinitb>
    2816:	48 8d b4 24 50 20 00 	lea    0x2050(%rsp),%rsi
    281d:	00 
    281e:	ba 00 20 00 00       	mov    $0x2000,%edx
    2823:	4c 89 e7             	mov    %r12,%rdi
    2826:	e8 4d fc ff ff       	callq  2478 <rio_readlineb>
    282b:	48 85 c0             	test   %rax,%rax
    282e:	0f 8e 86 03 00 00    	jle    2bba <submitr+0x58b>
    2834:	48 8d 4c 24 2c       	lea    0x2c(%rsp),%rcx
    2839:	48 8d 94 24 50 60 00 	lea    0x6050(%rsp),%rdx
    2840:	00 
    2841:	48 8d bc 24 50 20 00 	lea    0x2050(%rsp),%rdi
    2848:	00 
    2849:	4c 8d 84 24 50 80 00 	lea    0x8050(%rsp),%r8
    2850:	00 
    2851:	48 8d 35 c7 10 00 00 	lea    0x10c7(%rip),%rsi        # 391f <trans_char+0xaf>
    2858:	b8 00 00 00 00       	mov    $0x0,%eax
    285d:	e8 5e e7 ff ff       	callq  fc0 <__isoc99_sscanf@plt>
    2862:	48 8d b4 24 50 20 00 	lea    0x2050(%rsp),%rsi
    2869:	00 
    286a:	b9 03 00 00 00       	mov    $0x3,%ecx
    286f:	48 8d 3d c0 10 00 00 	lea    0x10c0(%rip),%rdi        # 3936 <trans_char+0xc6>
    2876:	f3 a6                	repz cmpsb %es:(%rdi),%ds:(%rsi)
    2878:	0f 97 c0             	seta   %al
    287b:	1c 00                	sbb    $0x0,%al
    287d:	84 c0                	test   %al,%al
    287f:	0f 84 b3 03 00 00    	je     2c38 <submitr+0x609>
    2885:	48 8d b4 24 50 20 00 	lea    0x2050(%rsp),%rsi
    288c:	00 
    288d:	48 8d 7c 24 40       	lea    0x40(%rsp),%rdi
    2892:	ba 00 20 00 00       	mov    $0x2000,%edx
    2897:	e8 dc fb ff ff       	callq  2478 <rio_readlineb>
    289c:	48 85 c0             	test   %rax,%rax
    289f:	7f c1                	jg     2862 <submitr+0x233>
    28a1:	48 b8 45 72 72 6f 72 	movabs $0x43203a726f727245,%rax
    28a8:	3a 20 43 
    28ab:	48 ba 6c 69 65 6e 74 	movabs $0x6e7520746e65696c,%rdx
    28b2:	20 75 6e 
    28b5:	48 89 45 00          	mov    %rax,0x0(%rbp)
    28b9:	48 89 55 08          	mov    %rdx,0x8(%rbp)
    28bd:	48 b8 61 62 6c 65 20 	movabs $0x206f7420656c6261,%rax
    28c4:	74 6f 20 
    28c7:	48 ba 72 65 61 64 20 	movabs $0x6165682064616572,%rdx
    28ce:	68 65 61 
    28d1:	48 89 45 10          	mov    %rax,0x10(%rbp)
    28d5:	48 89 55 18          	mov    %rdx,0x18(%rbp)
    28d9:	48 b8 64 65 72 73 20 	movabs $0x6f72662073726564,%rax
    28e0:	66 72 6f 
    28e3:	48 ba 6d 20 74 68 65 	movabs $0x657220656874206d,%rdx
    28ea:	20 72 65 
    28ed:	48 89 45 20          	mov    %rax,0x20(%rbp)
    28f1:	48 89 55 28          	mov    %rdx,0x28(%rbp)
    28f5:	48 b8 73 75 6c 74 20 	movabs $0x72657320746c7573,%rax
    28fc:	73 65 72 
    28ff:	48 89 45 30          	mov    %rax,0x30(%rbp)
    2903:	c7 45 38 76 65 72 00 	movl   $0x726576,0x38(%rbp)
    290a:	89 df                	mov    %ebx,%edi
    290c:	e8 0f e6 ff ff       	callq  f20 <close@plt>
    2911:	b8 ff ff ff ff       	mov    $0xffffffff,%eax
    2916:	48 8b 9c 24 58 a0 00 	mov    0xa058(%rsp),%rbx
    291d:	00 
    291e:	64 48 33 1c 25 28 00 	xor    %fs:0x28,%rbx
    2925:	00 00 
    2927:	0f 85 7e 04 00 00    	jne    2dab <submitr+0x77c>
    292d:	48 81 c4 68 a0 00 00 	add    $0xa068,%rsp
    2934:	5b                   	pop    %rbx
    2935:	5d                   	pop    %rbp
    2936:	41 5c                	pop    %r12
    2938:	41 5d                	pop    %r13
    293a:	41 5e                	pop    %r14
    293c:	41 5f                	pop    %r15
    293e:	c3                   	retq   
    293f:	48 b8 45 72 72 6f 72 	movabs $0x43203a726f727245,%rax
    2946:	3a 20 43 
    2949:	48 ba 6c 69 65 6e 74 	movabs $0x6e7520746e65696c,%rdx
    2950:	20 75 6e 
    2953:	48 89 45 00          	mov    %rax,0x0(%rbp)
    2957:	48 89 55 08          	mov    %rdx,0x8(%rbp)
    295b:	48 b8 61 62 6c 65 20 	movabs $0x206f7420656c6261,%rax
    2962:	74 6f 20 
    2965:	48 ba 63 72 65 61 74 	movabs $0x7320657461657263,%rdx
    296c:	65 20 73 
    296f:	48 89 45 10          	mov    %rax,0x10(%rbp)
    2973:	48 89 55 18          	mov    %rdx,0x18(%rbp)
    2977:	c7 45 20 6f 63 6b 65 	movl   $0x656b636f,0x20(%rbp)
    297e:	66 c7 45 24 74 00    	movw   $0x74,0x24(%rbp)
    2984:	b8 ff ff ff ff       	mov    $0xffffffff,%eax
    2989:	eb 8b                	jmp    2916 <submitr+0x2e7>
    298b:	48 b8 45 72 72 6f 72 	movabs $0x44203a726f727245,%rax
    2992:	3a 20 44 
    2995:	48 ba 4e 53 20 69 73 	movabs $0x6e7520736920534e,%rdx
    299c:	20 75 6e 
    299f:	48 89 45 00          	mov    %rax,0x0(%rbp)
    29a3:	48 89 55 08          	mov    %rdx,0x8(%rbp)
    29a7:	48 b8 61 62 6c 65 20 	movabs $0x206f7420656c6261,%rax
    29ae:	74 6f 20 
    29b1:	48 ba 72 65 73 6f 6c 	movabs $0x2065766c6f736572,%rdx
    29b8:	76 65 20 
    29bb:	48 89 45 10          	mov    %rax,0x10(%rbp)
    29bf:	48 89 55 18          	mov    %rdx,0x18(%rbp)
    29c3:	48 b8 73 65 72 76 65 	movabs $0x6120726576726573,%rax
    29ca:	72 20 61 
    29cd:	48 89 45 20          	mov    %rax,0x20(%rbp)
    29d1:	c7 45 28 64 64 72 65 	movl   $0x65726464,0x28(%rbp)
    29d8:	66 c7 45 2c 73 73    	movw   $0x7373,0x2c(%rbp)
    29de:	c6 45 2e 00          	movb   $0x0,0x2e(%rbp)
    29e2:	89 df                	mov    %ebx,%edi
    29e4:	e8 37 e5 ff ff       	callq  f20 <close@plt>
    29e9:	b8 ff ff ff ff       	mov    $0xffffffff,%eax
    29ee:	e9 23 ff ff ff       	jmpq   2916 <submitr+0x2e7>
    29f3:	48 b8 45 72 72 6f 72 	movabs $0x55203a726f727245,%rax
    29fa:	3a 20 55 
    29fd:	48 ba 6e 61 62 6c 65 	movabs $0x6f7420656c62616e,%rdx
    2a04:	20 74 6f 
    2a07:	48 89 45 00          	mov    %rax,0x0(%rbp)
    2a0b:	48 89 55 08          	mov    %rdx,0x8(%rbp)
    2a0f:	48 b8 20 63 6f 6e 6e 	movabs $0x7463656e6e6f6320,%rax
    2a16:	65 63 74 
    2a19:	48 ba 20 74 6f 20 74 	movabs $0x20656874206f7420,%rdx
    2a20:	68 65 20 
    2a23:	48 89 45 10          	mov    %rax,0x10(%rbp)
    2a27:	48 89 55 18          	mov    %rdx,0x18(%rbp)
    2a2b:	c7 45 20 73 65 72 76 	movl   $0x76726573,0x20(%rbp)
    2a32:	66 c7 45 24 65 72    	movw   $0x7265,0x24(%rbp)
    2a38:	c6 45 26 00          	movb   $0x0,0x26(%rbp)
    2a3c:	89 df                	mov    %ebx,%edi
    2a3e:	e8 dd e4 ff ff       	callq  f20 <close@plt>
    2a43:	b8 ff ff ff ff       	mov    $0xffffffff,%eax
    2a48:	e9 c9 fe ff ff       	jmpq   2916 <submitr+0x2e7>
    2a4d:	48 b8 45 72 72 6f 72 	movabs $0x52203a726f727245,%rax
    2a54:	3a 20 52 
    2a57:	48 ba 65 73 75 6c 74 	movabs $0x747320746c757365,%rdx
    2a5e:	20 73 74 
    2a61:	48 89 45 00          	mov    %rax,0x0(%rbp)
    2a65:	48 89 55 08          	mov    %rdx,0x8(%rbp)
    2a69:	48 b8 72 69 6e 67 20 	movabs $0x6f6f7420676e6972,%rax
    2a70:	74 6f 6f 
    2a73:	48 ba 20 6c 61 72 67 	movabs $0x202e656772616c20,%rdx
    2a7a:	65 2e 20 
    2a7d:	48 89 45 10          	mov    %rax,0x10(%rbp)
    2a81:	48 89 55 18          	mov    %rdx,0x18(%rbp)
    2a85:	48 b8 49 6e 63 72 65 	movabs $0x6573616572636e49,%rax
    2a8c:	61 73 65 
    2a8f:	48 ba 20 53 55 42 4d 	movabs $0x5254494d42555320,%rdx
    2a96:	49 54 52 
    2a99:	48 89 45 20          	mov    %rax,0x20(%rbp)
    2a9d:	48 89 55 28          	mov    %rdx,0x28(%rbp)
    2aa1:	48 b8 5f 4d 41 58 42 	movabs $0x46554258414d5f,%rax
    2aa8:	55 46 00 
    2aab:	48 89 45 30          	mov    %rax,0x30(%rbp)
    2aaf:	89 df                	mov    %ebx,%edi
    2ab1:	e8 6a e4 ff ff       	callq  f20 <close@plt>
    2ab6:	b8 ff ff ff ff       	mov    $0xffffffff,%eax
    2abb:	e9 56 fe ff ff       	jmpq   2916 <submitr+0x2e7>
    2ac0:	48 b8 45 72 72 6f 72 	movabs $0x52203a726f727245,%rax
    2ac7:	3a 20 52 
    2aca:	48 ba 65 73 75 6c 74 	movabs $0x747320746c757365,%rdx
    2ad1:	20 73 74 
    2ad4:	48 89 45 00          	mov    %rax,0x0(%rbp)
    2ad8:	48 89 55 08          	mov    %rdx,0x8(%rbp)
    2adc:	48 b8 72 69 6e 67 20 	movabs $0x6e6f6320676e6972,%rax
    2ae3:	63 6f 6e 
    2ae6:	48 ba 74 61 69 6e 73 	movabs $0x6e6120736e696174,%rdx
    2aed:	20 61 6e 
    2af0:	48 89 45 10          	mov    %rax,0x10(%rbp)
    2af4:	48 89 55 18          	mov    %rdx,0x18(%rbp)
    2af8:	48 b8 20 69 6c 6c 65 	movabs $0x6c6167656c6c6920,%rax
    2aff:	67 61 6c 
    2b02:	48 ba 20 6f 72 20 75 	movabs $0x72706e7520726f20,%rdx
    2b09:	6e 70 72 
    2b0c:	48 89 45 20          	mov    %rax,0x20(%rbp)
    2b10:	48 89 55 28          	mov    %rdx,0x28(%rbp)
    2b14:	48 b8 69 6e 74 61 62 	movabs $0x20656c6261746e69,%rax
    2b1b:	6c 65 20 
    2b1e:	48 ba 63 68 61 72 61 	movabs $0x6574636172616863,%rdx
    2b25:	63 74 65 
    2b28:	48 89 45 30          	mov    %rax,0x30(%rbp)
    2b2c:	48 89 55 38          	mov    %rdx,0x38(%rbp)
    2b30:	66 c7 45 40 72 2e    	movw   $0x2e72,0x40(%rbp)
    2b36:	c6 45 42 00          	movb   $0x0,0x42(%rbp)
    2b3a:	89 df                	mov    %ebx,%edi
    2b3c:	e8 df e3 ff ff       	callq  f20 <close@plt>
    2b41:	b8 ff ff ff ff       	mov    $0xffffffff,%eax
    2b46:	e9 cb fd ff ff       	jmpq   2916 <submitr+0x2e7>
    2b4b:	48 b8 45 72 72 6f 72 	movabs $0x43203a726f727245,%rax
    2b52:	3a 20 43 
    2b55:	48 ba 6c 69 65 6e 74 	movabs $0x6e7520746e65696c,%rdx
    2b5c:	20 75 6e 
    2b5f:	48 89 45 00          	mov    %rax,0x0(%rbp)
    2b63:	48 89 55 08          	mov    %rdx,0x8(%rbp)
    2b67:	48 b8 61 62 6c 65 20 	movabs $0x206f7420656c6261,%rax
    2b6e:	74 6f 20 
    2b71:	48 ba 77 72 69 74 65 	movabs $0x6f74206574697277,%rdx
    2b78:	20 74 6f 
    2b7b:	48 89 45 10          	mov    %rax,0x10(%rbp)
    2b7f:	48 89 55 18          	mov    %rdx,0x18(%rbp)
    2b83:	48 b8 20 74 68 65 20 	movabs $0x7365722065687420,%rax
    2b8a:	72 65 73 
    2b8d:	48 ba 75 6c 74 20 73 	movabs $0x7672657320746c75,%rdx
    2b94:	65 72 76 
    2b97:	48 89 45 20          	mov    %rax,0x20(%rbp)
    2b9b:	48 89 55 28          	mov    %rdx,0x28(%rbp)
    2b9f:	66 c7 45 30 65 72    	movw   $0x7265,0x30(%rbp)
    2ba5:	c6 45 32 00          	movb   $0x0,0x32(%rbp)
    2ba9:	89 df                	mov    %ebx,%edi
    2bab:	e8 70 e3 ff ff       	callq  f20 <close@plt>
    2bb0:	b8 ff ff ff ff       	mov    $0xffffffff,%eax
    2bb5:	e9 5c fd ff ff       	jmpq   2916 <submitr+0x2e7>
    2bba:	48 b8 45 72 72 6f 72 	movabs $0x43203a726f727245,%rax
    2bc1:	3a 20 43 
    2bc4:	48 ba 6c 69 65 6e 74 	movabs $0x6e7520746e65696c,%rdx
    2bcb:	20 75 6e 
    2bce:	48 89 45 00          	mov    %rax,0x0(%rbp)
    2bd2:	48 89 55 08          	mov    %rdx,0x8(%rbp)
    2bd6:	48 b8 61 62 6c 65 20 	movabs $0x206f7420656c6261,%rax
    2bdd:	74 6f 20 
    2be0:	48 ba 72 65 61 64 20 	movabs $0x7269662064616572,%rdx
    2be7:	66 69 72 
    2bea:	48 89 45 10          	mov    %rax,0x10(%rbp)
    2bee:	48 89 55 18          	mov    %rdx,0x18(%rbp)
    2bf2:	48 b8 73 74 20 68 65 	movabs $0x6564616568207473,%rax
    2bf9:	61 64 65 
    2bfc:	48 ba 72 20 66 72 6f 	movabs $0x72206d6f72662072,%rdx
    2c03:	6d 20 72 
    2c06:	48 89 45 20          	mov    %rax,0x20(%rbp)
    2c0a:	48 89 55 28          	mov    %rdx,0x28(%rbp)
    2c0e:	48 b8 65 73 75 6c 74 	movabs $0x657320746c757365,%rax
    2c15:	20 73 65 
    2c18:	48 89 45 30          	mov    %rax,0x30(%rbp)
    2c1c:	c7 45 38 72 76 65 72 	movl   $0x72657672,0x38(%rbp)
    2c23:	c6 45 3c 00          	movb   $0x0,0x3c(%rbp)
    2c27:	89 df                	mov    %ebx,%edi
    2c29:	e8 f2 e2 ff ff       	callq  f20 <close@plt>
    2c2e:	b8 ff ff ff ff       	mov    $0xffffffff,%eax
    2c33:	e9 de fc ff ff       	jmpq   2916 <submitr+0x2e7>
    2c38:	48 8d b4 24 50 20 00 	lea    0x2050(%rsp),%rsi
    2c3f:	00 
    2c40:	48 8d 7c 24 40       	lea    0x40(%rsp),%rdi
    2c45:	ba 00 20 00 00       	mov    $0x2000,%edx
    2c4a:	e8 29 f8 ff ff       	callq  2478 <rio_readlineb>
    2c4f:	48 85 c0             	test   %rax,%rax
    2c52:	0f 8e 96 00 00 00    	jle    2cee <submitr+0x6bf>
    2c58:	44 8b 44 24 2c       	mov    0x2c(%rsp),%r8d
    2c5d:	41 81 f8 c8 00 00 00 	cmp    $0xc8,%r8d
    2c64:	0f 85 08 01 00 00    	jne    2d72 <submitr+0x743>
    2c6a:	48 8d b4 24 50 20 00 	lea    0x2050(%rsp),%rsi
    2c71:	00 
    2c72:	48 89 ef             	mov    %rbp,%rdi
    2c75:	e8 36 e2 ff ff       	callq  eb0 <strcpy@plt>
    2c7a:	89 df                	mov    %ebx,%edi
    2c7c:	e8 9f e2 ff ff       	callq  f20 <close@plt>
    2c81:	b9 04 00 00 00       	mov    $0x4,%ecx
    2c86:	48 8d 3d a3 0c 00 00 	lea    0xca3(%rip),%rdi        # 3930 <trans_char+0xc0>
    2c8d:	48 89 ee             	mov    %rbp,%rsi
    2c90:	f3 a6                	repz cmpsb %es:(%rdi),%ds:(%rsi)
    2c92:	0f 97 c0             	seta   %al
    2c95:	1c 00                	sbb    $0x0,%al
    2c97:	0f be c0             	movsbl %al,%eax
    2c9a:	85 c0                	test   %eax,%eax
    2c9c:	0f 84 74 fc ff ff    	je     2916 <submitr+0x2e7>
    2ca2:	b9 05 00 00 00       	mov    $0x5,%ecx
    2ca7:	48 8d 3d 86 0c 00 00 	lea    0xc86(%rip),%rdi        # 3934 <trans_char+0xc4>
    2cae:	48 89 ee             	mov    %rbp,%rsi
    2cb1:	f3 a6                	repz cmpsb %es:(%rdi),%ds:(%rsi)
    2cb3:	0f 97 c0             	seta   %al
    2cb6:	1c 00                	sbb    $0x0,%al
    2cb8:	0f be c0             	movsbl %al,%eax
    2cbb:	85 c0                	test   %eax,%eax
    2cbd:	0f 84 53 fc ff ff    	je     2916 <submitr+0x2e7>
    2cc3:	b9 03 00 00 00       	mov    $0x3,%ecx
    2cc8:	48 8d 3d 6a 0c 00 00 	lea    0xc6a(%rip),%rdi        # 3939 <trans_char+0xc9>
    2ccf:	48 89 ee             	mov    %rbp,%rsi
    2cd2:	f3 a6                	repz cmpsb %es:(%rdi),%ds:(%rsi)
    2cd4:	0f 97 c0             	seta   %al
    2cd7:	1c 00                	sbb    $0x0,%al
    2cd9:	0f be c0             	movsbl %al,%eax
    2cdc:	85 c0                	test   %eax,%eax
    2cde:	0f 84 32 fc ff ff    	je     2916 <submitr+0x2e7>
    2ce4:	b8 ff ff ff ff       	mov    $0xffffffff,%eax
    2ce9:	e9 28 fc ff ff       	jmpq   2916 <submitr+0x2e7>
    2cee:	48 b8 45 72 72 6f 72 	movabs $0x43203a726f727245,%rax
    2cf5:	3a 20 43 
    2cf8:	48 ba 6c 69 65 6e 74 	movabs $0x6e7520746e65696c,%rdx
    2cff:	20 75 6e 
    2d02:	48 89 45 00          	mov    %rax,0x0(%rbp)
    2d06:	48 89 55 08          	mov    %rdx,0x8(%rbp)
    2d0a:	48 b8 61 62 6c 65 20 	movabs $0x206f7420656c6261,%rax
    2d11:	74 6f 20 
    2d14:	48 ba 72 65 61 64 20 	movabs $0x6174732064616572,%rdx
    2d1b:	73 74 61 
    2d1e:	48 89 45 10          	mov    %rax,0x10(%rbp)
    2d22:	48 89 55 18          	mov    %rdx,0x18(%rbp)
    2d26:	48 b8 74 75 73 20 6d 	movabs $0x7373656d20737574,%rax
    2d2d:	65 73 73 
    2d30:	48 ba 61 67 65 20 66 	movabs $0x6d6f726620656761,%rdx
    2d37:	72 6f 6d 
    2d3a:	48 89 45 20          	mov    %rax,0x20(%rbp)
    2d3e:	48 89 55 28          	mov    %rdx,0x28(%rbp)
    2d42:	48 b8 20 72 65 73 75 	movabs $0x20746c7573657220,%rax
    2d49:	6c 74 20 
    2d4c:	48 89 45 30          	mov    %rax,0x30(%rbp)
    2d50:	c7 45 38 73 65 72 76 	movl   $0x76726573,0x38(%rbp)
    2d57:	66 c7 45 3c 65 72    	movw   $0x7265,0x3c(%rbp)
    2d5d:	c6 45 3e 00          	movb   $0x0,0x3e(%rbp)
    2d61:	89 df                	mov    %ebx,%edi
    2d63:	e8 b8 e1 ff ff       	callq  f20 <close@plt>
    2d68:	b8 ff ff ff ff       	mov    $0xffffffff,%eax
    2d6d:	e9 a4 fb ff ff       	jmpq   2916 <submitr+0x2e7>
    2d72:	4c 8d 8c 24 50 80 00 	lea    0x8050(%rsp),%r9
    2d79:	00 
    2d7a:	48 8d 0d 67 0b 00 00 	lea    0xb67(%rip),%rcx        # 38e8 <trans_char+0x78>
    2d81:	48 c7 c2 ff ff ff ff 	mov    $0xffffffffffffffff,%rdx
    2d88:	be 01 00 00 00       	mov    $0x1,%esi
    2d8d:	48 89 ef             	mov    %rbp,%rdi
    2d90:	b8 00 00 00 00       	mov    $0x0,%eax
    2d95:	e8 c6 e2 ff ff       	callq  1060 <__sprintf_chk@plt>
    2d9a:	89 df                	mov    %ebx,%edi
    2d9c:	e8 7f e1 ff ff       	callq  f20 <close@plt>
    2da1:	b8 ff ff ff ff       	mov    $0xffffffff,%eax
    2da6:	e9 6b fb ff ff       	jmpq   2916 <submitr+0x2e7>
    2dab:	e8 30 e1 ff ff       	callq  ee0 <__stack_chk_fail@plt>

0000000000002db0 <init_timeout>:
    2db0:	85 ff                	test   %edi,%edi
    2db2:	74 28                	je     2ddc <init_timeout+0x2c>
    2db4:	53                   	push   %rbx
    2db5:	89 fb                	mov    %edi,%ebx
    2db7:	85 ff                	test   %edi,%edi
    2db9:	78 1a                	js     2dd5 <init_timeout+0x25>
    2dbb:	48 8d 35 9d f5 ff ff 	lea    -0xa63(%rip),%rsi        # 235f <sigalrm_handler>
    2dc2:	bf 0e 00 00 00       	mov    $0xe,%edi
    2dc7:	e8 74 e1 ff ff       	callq  f40 <signal@plt>
    2dcc:	89 df                	mov    %ebx,%edi
    2dce:	e8 3d e1 ff ff       	callq  f10 <alarm@plt>
    2dd3:	5b                   	pop    %rbx
    2dd4:	c3                   	retq   
    2dd5:	bb 00 00 00 00       	mov    $0x0,%ebx
    2dda:	eb df                	jmp    2dbb <init_timeout+0xb>
    2ddc:	f3 c3                	repz retq 

0000000000002dde <init_driver>:
    2dde:	41 54                	push   %r12
    2de0:	55                   	push   %rbp
    2de1:	53                   	push   %rbx
    2de2:	48 83 ec 20          	sub    $0x20,%rsp
    2de6:	49 89 fc             	mov    %rdi,%r12
    2de9:	64 48 8b 04 25 28 00 	mov    %fs:0x28,%rax
    2df0:	00 00 
    2df2:	48 89 44 24 18       	mov    %rax,0x18(%rsp)
    2df7:	31 c0                	xor    %eax,%eax
    2df9:	be 01 00 00 00       	mov    $0x1,%esi
    2dfe:	bf 0d 00 00 00       	mov    $0xd,%edi
    2e03:	e8 38 e1 ff ff       	callq  f40 <signal@plt>
    2e08:	be 01 00 00 00       	mov    $0x1,%esi
    2e0d:	bf 1d 00 00 00       	mov    $0x1d,%edi
    2e12:	e8 29 e1 ff ff       	callq  f40 <signal@plt>
    2e17:	be 01 00 00 00       	mov    $0x1,%esi
    2e1c:	bf 1d 00 00 00       	mov    $0x1d,%edi
    2e21:	e8 1a e1 ff ff       	callq  f40 <signal@plt>
    2e26:	ba 00 00 00 00       	mov    $0x0,%edx
    2e2b:	be 01 00 00 00       	mov    $0x1,%esi
    2e30:	bf 02 00 00 00       	mov    $0x2,%edi
    2e35:	e8 36 e2 ff ff       	callq  1070 <socket@plt>
    2e3a:	85 c0                	test   %eax,%eax
    2e3c:	0f 88 a3 00 00 00    	js     2ee5 <init_driver+0x107>
    2e42:	89 c3                	mov    %eax,%ebx
    2e44:	48 8d 3d e1 05 00 00 	lea    0x5e1(%rip),%rdi        # 342c <_IO_stdin_used+0x2dc>
    2e4b:	e8 00 e1 ff ff       	callq  f50 <gethostbyname@plt>
    2e50:	48 85 c0             	test   %rax,%rax
    2e53:	0f 84 df 00 00 00    	je     2f38 <init_driver+0x15a>
    2e59:	48 89 e5             	mov    %rsp,%rbp
    2e5c:	48 c7 44 24 02 00 00 	movq   $0x0,0x2(%rsp)
    2e63:	00 00 
    2e65:	c7 45 0a 00 00 00 00 	movl   $0x0,0xa(%rbp)
    2e6c:	66 c7 45 0e 00 00    	movw   $0x0,0xe(%rbp)
    2e72:	66 c7 04 24 02 00    	movw   $0x2,(%rsp)
    2e78:	48 63 50 14          	movslq 0x14(%rax),%rdx
    2e7c:	48 8b 40 18          	mov    0x18(%rax),%rax
    2e80:	48 8b 30             	mov    (%rax),%rsi
    2e83:	48 8d 7d 04          	lea    0x4(%rbp),%rdi
    2e87:	b9 0c 00 00 00       	mov    $0xc,%ecx
    2e8c:	e8 cf e0 ff ff       	callq  f60 <__memmove_chk@plt>
    2e91:	66 c7 44 24 02 3c 9a 	movw   $0x9a3c,0x2(%rsp)
    2e98:	ba 10 00 00 00       	mov    $0x10,%edx
    2e9d:	48 89 ee             	mov    %rbp,%rsi
    2ea0:	89 df                	mov    %ebx,%edi
    2ea2:	e8 99 e1 ff ff       	callq  1040 <connect@plt>
    2ea7:	85 c0                	test   %eax,%eax
    2ea9:	0f 88 fb 00 00 00    	js     2faa <init_driver+0x1cc>
    2eaf:	89 df                	mov    %ebx,%edi
    2eb1:	e8 6a e0 ff ff       	callq  f20 <close@plt>
    2eb6:	66 41 c7 04 24 4f 4b 	movw   $0x4b4f,(%r12)
    2ebd:	41 c6 44 24 02 00    	movb   $0x0,0x2(%r12)
    2ec3:	b8 00 00 00 00       	mov    $0x0,%eax
    2ec8:	48 8b 4c 24 18       	mov    0x18(%rsp),%rcx
    2ecd:	64 48 33 0c 25 28 00 	xor    %fs:0x28,%rcx
    2ed4:	00 00 
    2ed6:	0f 85 28 01 00 00    	jne    3004 <init_driver+0x226>
    2edc:	48 83 c4 20          	add    $0x20,%rsp
    2ee0:	5b                   	pop    %rbx
    2ee1:	5d                   	pop    %rbp
    2ee2:	41 5c                	pop    %r12
    2ee4:	c3                   	retq   
    2ee5:	48 b8 45 72 72 6f 72 	movabs $0x43203a726f727245,%rax
    2eec:	3a 20 43 
    2eef:	48 ba 6c 69 65 6e 74 	movabs $0x6e7520746e65696c,%rdx
    2ef6:	20 75 6e 
    2ef9:	49 89 04 24          	mov    %rax,(%r12)
    2efd:	49 89 54 24 08       	mov    %rdx,0x8(%r12)
    2f02:	48 b8 61 62 6c 65 20 	movabs $0x206f7420656c6261,%rax
    2f09:	74 6f 20 
    2f0c:	48 ba 63 72 65 61 74 	movabs $0x7320657461657263,%rdx
    2f13:	65 20 73 
    2f16:	49 89 44 24 10       	mov    %rax,0x10(%r12)
    2f1b:	49 89 54 24 18       	mov    %rdx,0x18(%r12)
    2f20:	41 c7 44 24 20 6f 63 	movl   $0x656b636f,0x20(%r12)
    2f27:	6b 65 
    2f29:	66 41 c7 44 24 24 74 	movw   $0x74,0x24(%r12)
    2f30:	00 
    2f31:	b8 ff ff ff ff       	mov    $0xffffffff,%eax
    2f36:	eb 90                	jmp    2ec8 <init_driver+0xea>
    2f38:	48 b8 45 72 72 6f 72 	movabs $0x44203a726f727245,%rax
    2f3f:	3a 20 44 
    2f42:	48 ba 4e 53 20 69 73 	movabs $0x6e7520736920534e,%rdx
    2f49:	20 75 6e 
    2f4c:	49 89 04 24          	mov    %rax,(%r12)
    2f50:	49 89 54 24 08       	mov    %rdx,0x8(%r12)
    2f55:	48 b8 61 62 6c 65 20 	movabs $0x206f7420656c6261,%rax
    2f5c:	74 6f 20 
    2f5f:	48 ba 72 65 73 6f 6c 	movabs $0x2065766c6f736572,%rdx
    2f66:	76 65 20 
    2f69:	49 89 44 24 10       	mov    %rax,0x10(%r12)
    2f6e:	49 89 54 24 18       	mov    %rdx,0x18(%r12)
    2f73:	48 b8 73 65 72 76 65 	movabs $0x6120726576726573,%rax
    2f7a:	72 20 61 
    2f7d:	49 89 44 24 20       	mov    %rax,0x20(%r12)
    2f82:	41 c7 44 24 28 64 64 	movl   $0x65726464,0x28(%r12)
    2f89:	72 65 
    2f8b:	66 41 c7 44 24 2c 73 	movw   $0x7373,0x2c(%r12)
    2f92:	73 
    2f93:	41 c6 44 24 2e 00    	movb   $0x0,0x2e(%r12)
    2f99:	89 df                	mov    %ebx,%edi
    2f9b:	e8 80 df ff ff       	callq  f20 <close@plt>
    2fa0:	b8 ff ff ff ff       	mov    $0xffffffff,%eax
    2fa5:	e9 1e ff ff ff       	jmpq   2ec8 <init_driver+0xea>
    2faa:	48 b8 45 72 72 6f 72 	movabs $0x55203a726f727245,%rax
    2fb1:	3a 20 55 
    2fb4:	48 ba 6e 61 62 6c 65 	movabs $0x6f7420656c62616e,%rdx
    2fbb:	20 74 6f 
    2fbe:	49 89 04 24          	mov    %rax,(%r12)
    2fc2:	49 89 54 24 08       	mov    %rdx,0x8(%r12)
    2fc7:	48 b8 20 63 6f 6e 6e 	movabs $0x7463656e6e6f6320,%rax
    2fce:	65 63 74 
    2fd1:	48 ba 20 74 6f 20 73 	movabs $0x76726573206f7420,%rdx
    2fd8:	65 72 76 
    2fdb:	49 89 44 24 10       	mov    %rax,0x10(%r12)
    2fe0:	49 89 54 24 18       	mov    %rdx,0x18(%r12)
    2fe5:	66 41 c7 44 24 20 65 	movw   $0x7265,0x20(%r12)
    2fec:	72 
    2fed:	41 c6 44 24 22 00    	movb   $0x0,0x22(%r12)
    2ff3:	89 df                	mov    %ebx,%edi
    2ff5:	e8 26 df ff ff       	callq  f20 <close@plt>
    2ffa:	b8 ff ff ff ff       	mov    $0xffffffff,%eax
    2fff:	e9 c4 fe ff ff       	jmpq   2ec8 <init_driver+0xea>
    3004:	e8 d7 de ff ff       	callq  ee0 <__stack_chk_fail@plt>

0000000000003009 <driver_post>:
    3009:	53                   	push   %rbx
    300a:	4c 89 cb             	mov    %r9,%rbx
    300d:	45 85 c0             	test   %r8d,%r8d
    3010:	75 18                	jne    302a <driver_post+0x21>
    3012:	48 85 ff             	test   %rdi,%rdi
    3015:	74 05                	je     301c <driver_post+0x13>
    3017:	80 3f 00             	cmpb   $0x0,(%rdi)
    301a:	75 37                	jne    3053 <driver_post+0x4a>
    301c:	66 c7 03 4f 4b       	movw   $0x4b4f,(%rbx)
    3021:	c6 43 02 00          	movb   $0x0,0x2(%rbx)
    3025:	44 89 c0             	mov    %r8d,%eax
    3028:	5b                   	pop    %rbx
    3029:	c3                   	retq   
    302a:	48 89 ca             	mov    %rcx,%rdx
    302d:	48 8d 35 08 09 00 00 	lea    0x908(%rip),%rsi        # 393c <trans_char+0xcc>
    3034:	bf 01 00 00 00       	mov    $0x1,%edi
    3039:	b8 00 00 00 00       	mov    $0x0,%eax
    303e:	e8 9d df ff ff       	callq  fe0 <__printf_chk@plt>
    3043:	66 c7 03 4f 4b       	movw   $0x4b4f,(%rbx)
    3048:	c6 43 02 00          	movb   $0x0,0x2(%rbx)
    304c:	b8 00 00 00 00       	mov    $0x0,%eax
    3051:	eb d5                	jmp    3028 <driver_post+0x1f>
    3053:	48 83 ec 08          	sub    $0x8,%rsp
    3057:	41 51                	push   %r9
    3059:	49 89 c9             	mov    %rcx,%r9
    305c:	49 89 d0             	mov    %rdx,%r8
    305f:	48 89 f9             	mov    %rdi,%rcx
    3062:	48 89 f2             	mov    %rsi,%rdx
    3065:	be 9a 3c 00 00       	mov    $0x3c9a,%esi
    306a:	48 8d 3d bb 03 00 00 	lea    0x3bb(%rip),%rdi        # 342c <_IO_stdin_used+0x2dc>
    3071:	e8 b9 f5 ff ff       	callq  262f <submitr>
    3076:	48 83 c4 10          	add    $0x10,%rsp
    307a:	eb ac                	jmp    3028 <driver_post+0x1f>

000000000000307c <check>:
    307c:	89 f8                	mov    %edi,%eax
    307e:	c1 e8 1c             	shr    $0x1c,%eax
    3081:	85 c0                	test   %eax,%eax
    3083:	74 1d                	je     30a2 <check+0x26>
    3085:	b9 00 00 00 00       	mov    $0x0,%ecx
    308a:	83 f9 1f             	cmp    $0x1f,%ecx
    308d:	7f 0d                	jg     309c <check+0x20>
    308f:	89 f8                	mov    %edi,%eax
    3091:	d3 e8                	shr    %cl,%eax
    3093:	3c 0a                	cmp    $0xa,%al
    3095:	74 11                	je     30a8 <check+0x2c>
    3097:	83 c1 08             	add    $0x8,%ecx
    309a:	eb ee                	jmp    308a <check+0xe>
    309c:	b8 01 00 00 00       	mov    $0x1,%eax
    30a1:	c3                   	retq   
    30a2:	b8 00 00 00 00       	mov    $0x0,%eax
    30a7:	c3                   	retq   
    30a8:	b8 00 00 00 00       	mov    $0x0,%eax
    30ad:	c3                   	retq   

00000000000030ae <gencookie>:
    30ae:	53                   	push   %rbx
    30af:	83 c7 01             	add    $0x1,%edi
    30b2:	e8 d9 dd ff ff       	callq  e90 <srandom@plt>
    30b7:	e8 e4 de ff ff       	callq  fa0 <random@plt>
    30bc:	89 c3                	mov    %eax,%ebx
    30be:	89 c7                	mov    %eax,%edi
    30c0:	e8 b7 ff ff ff       	callq  307c <check>
    30c5:	85 c0                	test   %eax,%eax
    30c7:	74 ee                	je     30b7 <gencookie+0x9>
    30c9:	89 d8                	mov    %ebx,%eax
    30cb:	5b                   	pop    %rbx
    30cc:	c3                   	retq   
    30cd:	0f 1f 00             	nopl   (%rax)

00000000000030d0 <__libc_csu_init>:
    30d0:	41 57                	push   %r15
    30d2:	41 56                	push   %r14
    30d4:	49 89 d7             	mov    %rdx,%r15
    30d7:	41 55                	push   %r13
    30d9:	41 54                	push   %r12
    30db:	4c 8d 25 d6 1b 20 00 	lea    0x201bd6(%rip),%r12        # 204cb8 <__frame_dummy_init_array_entry>
    30e2:	55                   	push   %rbp
    30e3:	48 8d 2d d6 1b 20 00 	lea    0x201bd6(%rip),%rbp        # 204cc0 <__init_array_end>
    30ea:	53                   	push   %rbx
    30eb:	41 89 fd             	mov    %edi,%r13d
    30ee:	49 89 f6             	mov    %rsi,%r14
    30f1:	4c 29 e5             	sub    %r12,%rbp
    30f4:	48 83 ec 08          	sub    $0x8,%rsp
    30f8:	48 c1 fd 03          	sar    $0x3,%rbp
    30fc:	e8 3f dd ff ff       	callq  e40 <_init>
    3101:	48 85 ed             	test   %rbp,%rbp
    3104:	74 20                	je     3126 <__libc_csu_init+0x56>
    3106:	31 db                	xor    %ebx,%ebx
    3108:	0f 1f 84 00 00 00 00 	nopl   0x0(%rax,%rax,1)
    310f:	00 
    3110:	4c 89 fa             	mov    %r15,%rdx
    3113:	4c 89 f6             	mov    %r14,%rsi
    3116:	44 89 ef             	mov    %r13d,%edi
    3119:	41 ff 14 dc          	callq  *(%r12,%rbx,8)
    311d:	48 83 c3 01          	add    $0x1,%rbx
    3121:	48 39 dd             	cmp    %rbx,%rbp
    3124:	75 ea                	jne    3110 <__libc_csu_init+0x40>
    3126:	48 83 c4 08          	add    $0x8,%rsp
    312a:	5b                   	pop    %rbx
    312b:	5d                   	pop    %rbp
    312c:	41 5c                	pop    %r12
    312e:	41 5d                	pop    %r13
    3130:	41 5e                	pop    %r14
    3132:	41 5f                	pop    %r15
    3134:	c3                   	retq   
    3135:	90                   	nop
    3136:	66 2e 0f 1f 84 00 00 	nopw   %cs:0x0(%rax,%rax,1)
    313d:	00 00 00 

0000000000003140 <__libc_csu_fini>:
    3140:	f3 c3                	repz retq 

Disassembly of section .fini:

0000000000003144 <_fini>:
    3144:	48 83 ec 08          	sub    $0x8,%rsp
    3148:	48 83 c4 08          	add    $0x8,%rsp
    314c:	c3                   	retq   
