
rtarget:     file format elf64-x86-64


Disassembly of section .init:

0000000000000e40 <_init>:
 e40:	48 83 ec 08          	sub    $0x8,%rsp
 e44:	48 8b 05 9d 41 20 00 	mov    0x20419d(%rip),%rax        # 204fe8 <__gmon_start__>
 e4b:	48 85 c0             	test   %rax,%rax
 e4e:	74 02                	je     e52 <_init+0x12>
 e50:	ff d0                	callq  *%rax
 e52:	48 83 c4 08          	add    $0x8,%rsp
 e56:	c3                   	retq   

Disassembly of section .plt:

0000000000000e60 <.plt>:
     e60:	ff 35 5a 40 20 00    	pushq  0x20405a(%rip)        # 204ec0 <_GLOBAL_OFFSET_TABLE_+0x8>
     e66:	ff 25 5c 40 20 00    	jmpq   *0x20405c(%rip)        # 204ec8 <_GLOBAL_OFFSET_TABLE_+0x10>
     e6c:	0f 1f 40 00          	nopl   0x0(%rax)

0000000000000e70 <strcasecmp@plt>:
     e70:	ff 25 5a 40 20 00    	jmpq   *0x20405a(%rip)        # 204ed0 <strcasecmp@GLIBC_2.2.5>
     e76:	68 00 00 00 00       	pushq  $0x0
     e7b:	e9 e0 ff ff ff       	jmpq   e60 <.plt>

0000000000000e80 <__errno_location@plt>:
     e80:	ff 25 52 40 20 00    	jmpq   *0x204052(%rip)        # 204ed8 <__errno_location@GLIBC_2.2.5>
     e86:	68 01 00 00 00       	pushq  $0x1
     e8b:	e9 d0 ff ff ff       	jmpq   e60 <.plt>

0000000000000e90 <srandom@plt>:
     e90:	ff 25 4a 40 20 00    	jmpq   *0x20404a(%rip)        # 204ee0 <srandom@GLIBC_2.2.5>
     e96:	68 02 00 00 00       	pushq  $0x2
     e9b:	e9 c0 ff ff ff       	jmpq   e60 <.plt>

0000000000000ea0 <strncmp@plt>:
     ea0:	ff 25 42 40 20 00    	jmpq   *0x204042(%rip)        # 204ee8 <strncmp@GLIBC_2.2.5>
     ea6:	68 03 00 00 00       	pushq  $0x3
     eab:	e9 b0 ff ff ff       	jmpq   e60 <.plt>

0000000000000eb0 <strcpy@plt>:
     eb0:	ff 25 3a 40 20 00    	jmpq   *0x20403a(%rip)        # 204ef0 <strcpy@GLIBC_2.2.5>
     eb6:	68 04 00 00 00       	pushq  $0x4
     ebb:	e9 a0 ff ff ff       	jmpq   e60 <.plt>

0000000000000ec0 <puts@plt>:
     ec0:	ff 25 32 40 20 00    	jmpq   *0x204032(%rip)        # 204ef8 <puts@GLIBC_2.2.5>
     ec6:	68 05 00 00 00       	pushq  $0x5
     ecb:	e9 90 ff ff ff       	jmpq   e60 <.plt>

0000000000000ed0 <write@plt>:
     ed0:	ff 25 2a 40 20 00    	jmpq   *0x20402a(%rip)        # 204f00 <write@GLIBC_2.2.5>
     ed6:	68 06 00 00 00       	pushq  $0x6
     edb:	e9 80 ff ff ff       	jmpq   e60 <.plt>

0000000000000ee0 <__stack_chk_fail@plt>:
     ee0:	ff 25 22 40 20 00    	jmpq   *0x204022(%rip)        # 204f08 <__stack_chk_fail@GLIBC_2.4>
     ee6:	68 07 00 00 00       	pushq  $0x7
     eeb:	e9 70 ff ff ff       	jmpq   e60 <.plt>

0000000000000ef0 <mmap@plt>:
     ef0:	ff 25 1a 40 20 00    	jmpq   *0x20401a(%rip)        # 204f10 <mmap@GLIBC_2.2.5>
     ef6:	68 08 00 00 00       	pushq  $0x8
     efb:	e9 60 ff ff ff       	jmpq   e60 <.plt>

0000000000000f00 <memset@plt>:
     f00:	ff 25 12 40 20 00    	jmpq   *0x204012(%rip)        # 204f18 <memset@GLIBC_2.2.5>
     f06:	68 09 00 00 00       	pushq  $0x9
     f0b:	e9 50 ff ff ff       	jmpq   e60 <.plt>

0000000000000f10 <alarm@plt>:
     f10:	ff 25 0a 40 20 00    	jmpq   *0x20400a(%rip)        # 204f20 <alarm@GLIBC_2.2.5>
     f16:	68 0a 00 00 00       	pushq  $0xa
     f1b:	e9 40 ff ff ff       	jmpq   e60 <.plt>

0000000000000f20 <close@plt>:
     f20:	ff 25 02 40 20 00    	jmpq   *0x204002(%rip)        # 204f28 <close@GLIBC_2.2.5>
     f26:	68 0b 00 00 00       	pushq  $0xb
     f2b:	e9 30 ff ff ff       	jmpq   e60 <.plt>

0000000000000f30 <read@plt>:
     f30:	ff 25 fa 3f 20 00    	jmpq   *0x203ffa(%rip)        # 204f30 <read@GLIBC_2.2.5>
     f36:	68 0c 00 00 00       	pushq  $0xc
     f3b:	e9 20 ff ff ff       	jmpq   e60 <.plt>

0000000000000f40 <signal@plt>:
     f40:	ff 25 f2 3f 20 00    	jmpq   *0x203ff2(%rip)        # 204f38 <signal@GLIBC_2.2.5>
     f46:	68 0d 00 00 00       	pushq  $0xd
     f4b:	e9 10 ff ff ff       	jmpq   e60 <.plt>

0000000000000f50 <gethostbyname@plt>:
     f50:	ff 25 ea 3f 20 00    	jmpq   *0x203fea(%rip)        # 204f40 <gethostbyname@GLIBC_2.2.5>
     f56:	68 0e 00 00 00       	pushq  $0xe
     f5b:	e9 00 ff ff ff       	jmpq   e60 <.plt>

0000000000000f60 <__memmove_chk@plt>:
     f60:	ff 25 e2 3f 20 00    	jmpq   *0x203fe2(%rip)        # 204f48 <__memmove_chk@GLIBC_2.3.4>
     f66:	68 0f 00 00 00       	pushq  $0xf
     f6b:	e9 f0 fe ff ff       	jmpq   e60 <.plt>

0000000000000f70 <strtol@plt>:
     f70:	ff 25 da 3f 20 00    	jmpq   *0x203fda(%rip)        # 204f50 <strtol@GLIBC_2.2.5>
     f76:	68 10 00 00 00       	pushq  $0x10
     f7b:	e9 e0 fe ff ff       	jmpq   e60 <.plt>

0000000000000f80 <memcpy@plt>:
     f80:	ff 25 d2 3f 20 00    	jmpq   *0x203fd2(%rip)        # 204f58 <memcpy@GLIBC_2.14>
     f86:	68 11 00 00 00       	pushq  $0x11
     f8b:	e9 d0 fe ff ff       	jmpq   e60 <.plt>

0000000000000f90 <time@plt>:
     f90:	ff 25 ca 3f 20 00    	jmpq   *0x203fca(%rip)        # 204f60 <time@GLIBC_2.2.5>
     f96:	68 12 00 00 00       	pushq  $0x12
     f9b:	e9 c0 fe ff ff       	jmpq   e60 <.plt>

0000000000000fa0 <random@plt>:
     fa0:	ff 25 c2 3f 20 00    	jmpq   *0x203fc2(%rip)        # 204f68 <random@GLIBC_2.2.5>
     fa6:	68 13 00 00 00       	pushq  $0x13
     fab:	e9 b0 fe ff ff       	jmpq   e60 <.plt>

0000000000000fb0 <_IO_getc@plt>:
     fb0:	ff 25 ba 3f 20 00    	jmpq   *0x203fba(%rip)        # 204f70 <_IO_getc@GLIBC_2.2.5>
     fb6:	68 14 00 00 00       	pushq  $0x14
     fbb:	e9 a0 fe ff ff       	jmpq   e60 <.plt>

0000000000000fc0 <__isoc99_sscanf@plt>:
     fc0:	ff 25 b2 3f 20 00    	jmpq   *0x203fb2(%rip)        # 204f78 <__isoc99_sscanf@GLIBC_2.7>
     fc6:	68 15 00 00 00       	pushq  $0x15
     fcb:	e9 90 fe ff ff       	jmpq   e60 <.plt>

0000000000000fd0 <munmap@plt>:
     fd0:	ff 25 aa 3f 20 00    	jmpq   *0x203faa(%rip)        # 204f80 <munmap@GLIBC_2.2.5>
     fd6:	68 16 00 00 00       	pushq  $0x16
     fdb:	e9 80 fe ff ff       	jmpq   e60 <.plt>

0000000000000fe0 <__printf_chk@plt>:
     fe0:	ff 25 a2 3f 20 00    	jmpq   *0x203fa2(%rip)        # 204f88 <__printf_chk@GLIBC_2.3.4>
     fe6:	68 17 00 00 00       	pushq  $0x17
     feb:	e9 70 fe ff ff       	jmpq   e60 <.plt>

0000000000000ff0 <fopen@plt>:
     ff0:	ff 25 9a 3f 20 00    	jmpq   *0x203f9a(%rip)        # 204f90 <fopen@GLIBC_2.2.5>
     ff6:	68 18 00 00 00       	pushq  $0x18
     ffb:	e9 60 fe ff ff       	jmpq   e60 <.plt>

0000000000001000 <getopt@plt>:
    1000:	ff 25 92 3f 20 00    	jmpq   *0x203f92(%rip)        # 204f98 <getopt@GLIBC_2.2.5>
    1006:	68 19 00 00 00       	pushq  $0x19
    100b:	e9 50 fe ff ff       	jmpq   e60 <.plt>

0000000000001010 <strtoul@plt>:
    1010:	ff 25 8a 3f 20 00    	jmpq   *0x203f8a(%rip)        # 204fa0 <strtoul@GLIBC_2.2.5>
    1016:	68 1a 00 00 00       	pushq  $0x1a
    101b:	e9 40 fe ff ff       	jmpq   e60 <.plt>

0000000000001020 <gethostname@plt>:
    1020:	ff 25 82 3f 20 00    	jmpq   *0x203f82(%rip)        # 204fa8 <gethostname@GLIBC_2.2.5>
    1026:	68 1b 00 00 00       	pushq  $0x1b
    102b:	e9 30 fe ff ff       	jmpq   e60 <.plt>

0000000000001030 <exit@plt>:
    1030:	ff 25 7a 3f 20 00    	jmpq   *0x203f7a(%rip)        # 204fb0 <exit@GLIBC_2.2.5>
    1036:	68 1c 00 00 00       	pushq  $0x1c
    103b:	e9 20 fe ff ff       	jmpq   e60 <.plt>

0000000000001040 <connect@plt>:
    1040:	ff 25 72 3f 20 00    	jmpq   *0x203f72(%rip)        # 204fb8 <connect@GLIBC_2.2.5>
    1046:	68 1d 00 00 00       	pushq  $0x1d
    104b:	e9 10 fe ff ff       	jmpq   e60 <.plt>

0000000000001050 <__fprintf_chk@plt>:
    1050:	ff 25 6a 3f 20 00    	jmpq   *0x203f6a(%rip)        # 204fc0 <__fprintf_chk@GLIBC_2.3.4>
    1056:	68 1e 00 00 00       	pushq  $0x1e
    105b:	e9 00 fe ff ff       	jmpq   e60 <.plt>

0000000000001060 <__sprintf_chk@plt>:
    1060:	ff 25 62 3f 20 00    	jmpq   *0x203f62(%rip)        # 204fc8 <__sprintf_chk@GLIBC_2.3.4>
    1066:	68 1f 00 00 00       	pushq  $0x1f
    106b:	e9 f0 fd ff ff       	jmpq   e60 <.plt>

0000000000001070 <socket@plt>:
    1070:	ff 25 5a 3f 20 00    	jmpq   *0x203f5a(%rip)        # 204fd0 <socket@GLIBC_2.2.5>
    1076:	68 20 00 00 00       	pushq  $0x20
    107b:	e9 e0 fd ff ff       	jmpq   e60 <.plt>

Disassembly of section .plt.got:

0000000000001080 <__cxa_finalize@plt>:
    1080:	ff 25 72 3f 20 00    	jmpq   *0x203f72(%rip)        # 204ff8 <__cxa_finalize@GLIBC_2.2.5>
    1086:	66 90                	xchg   %ax,%ax

Disassembly of section .text:

0000000000001090 <_start>:
    1090:	31 ed                	xor    %ebp,%ebp
    1092:	49 89 d1             	mov    %rdx,%r9
    1095:	5e                   	pop    %rsi
    1096:	48 89 e2             	mov    %rsp,%rdx
    1099:	48 83 e4 f0          	and    $0xfffffffffffffff0,%rsp
    109d:	50                   	push   %rax
    109e:	54                   	push   %rsp
    109f:	4c 8d 05 ba 21 00 00 	lea    0x21ba(%rip),%r8        # 3260 <__libc_csu_fini>
    10a6:	48 8d 0d 43 21 00 00 	lea    0x2143(%rip),%rcx        # 31f0 <__libc_csu_init>
    10ad:	48 8d 3d 0d 03 00 00 	lea    0x30d(%rip),%rdi        # 13c1 <main>
    10b4:	ff 15 26 3f 20 00    	callq  *0x203f26(%rip)        # 204fe0 <__libc_start_main@GLIBC_2.2.5>
    10ba:	f4                   	hlt    
    10bb:	0f 1f 44 00 00       	nopl   0x0(%rax,%rax,1)

00000000000010c0 <deregister_tm_clones>:
    10c0:	48 8d 3d a9 42 20 00 	lea    0x2042a9(%rip),%rdi        # 205370 <__TMC_END__>
    10c7:	55                   	push   %rbp
    10c8:	48 8d 05 a1 42 20 00 	lea    0x2042a1(%rip),%rax        # 205370 <__TMC_END__>
    10cf:	48 39 f8             	cmp    %rdi,%rax
    10d2:	48 89 e5             	mov    %rsp,%rbp
    10d5:	74 19                	je     10f0 <deregister_tm_clones+0x30>
    10d7:	48 8b 05 fa 3e 20 00 	mov    0x203efa(%rip),%rax        # 204fd8 <_ITM_deregisterTMCloneTable>
    10de:	48 85 c0             	test   %rax,%rax
    10e1:	74 0d                	je     10f0 <deregister_tm_clones+0x30>
    10e3:	5d                   	pop    %rbp
    10e4:	ff e0                	jmpq   *%rax
    10e6:	66 2e 0f 1f 84 00 00 	nopw   %cs:0x0(%rax,%rax,1)
    10ed:	00 00 00 
    10f0:	5d                   	pop    %rbp
    10f1:	c3                   	retq   
    10f2:	0f 1f 40 00          	nopl   0x0(%rax)
    10f6:	66 2e 0f 1f 84 00 00 	nopw   %cs:0x0(%rax,%rax,1)
    10fd:	00 00 00 

0000000000001100 <register_tm_clones>:
    1100:	48 8d 3d 69 42 20 00 	lea    0x204269(%rip),%rdi        # 205370 <__TMC_END__>
    1107:	48 8d 35 62 42 20 00 	lea    0x204262(%rip),%rsi        # 205370 <__TMC_END__>
    110e:	55                   	push   %rbp
    110f:	48 29 fe             	sub    %rdi,%rsi
    1112:	48 89 e5             	mov    %rsp,%rbp
    1115:	48 c1 fe 03          	sar    $0x3,%rsi
    1119:	48 89 f0             	mov    %rsi,%rax
    111c:	48 c1 e8 3f          	shr    $0x3f,%rax
    1120:	48 01 c6             	add    %rax,%rsi
    1123:	48 d1 fe             	sar    %rsi
    1126:	74 18                	je     1140 <register_tm_clones+0x40>
    1128:	48 8b 05 c1 3e 20 00 	mov    0x203ec1(%rip),%rax        # 204ff0 <_ITM_registerTMCloneTable>
    112f:	48 85 c0             	test   %rax,%rax
    1132:	74 0c                	je     1140 <register_tm_clones+0x40>
    1134:	5d                   	pop    %rbp
    1135:	ff e0                	jmpq   *%rax
    1137:	66 0f 1f 84 00 00 00 	nopw   0x0(%rax,%rax,1)
    113e:	00 00 
    1140:	5d                   	pop    %rbp
    1141:	c3                   	retq   
    1142:	0f 1f 40 00          	nopl   0x0(%rax)
    1146:	66 2e 0f 1f 84 00 00 	nopw   %cs:0x0(%rax,%rax,1)
    114d:	00 00 00 

0000000000001150 <__do_global_dtors_aux>:
    1150:	80 3d 51 42 20 00 00 	cmpb   $0x0,0x204251(%rip)        # 2053a8 <completed.7696>
    1157:	75 2f                	jne    1188 <__do_global_dtors_aux+0x38>
    1159:	48 83 3d 97 3e 20 00 	cmpq   $0x0,0x203e97(%rip)        # 204ff8 <__cxa_finalize@GLIBC_2.2.5>
    1160:	00 
    1161:	55                   	push   %rbp
    1162:	48 89 e5             	mov    %rsp,%rbp
    1165:	74 0c                	je     1173 <__do_global_dtors_aux+0x23>
    1167:	48 8b 3d 9a 3e 20 00 	mov    0x203e9a(%rip),%rdi        # 205008 <__dso_handle>
    116e:	e8 0d ff ff ff       	callq  1080 <__cxa_finalize@plt>
    1173:	e8 48 ff ff ff       	callq  10c0 <deregister_tm_clones>
    1178:	c6 05 29 42 20 00 01 	movb   $0x1,0x204229(%rip)        # 2053a8 <completed.7696>
    117f:	5d                   	pop    %rbp
    1180:	c3                   	retq   
    1181:	0f 1f 80 00 00 00 00 	nopl   0x0(%rax)
    1188:	f3 c3                	repz retq 
    118a:	66 0f 1f 44 00 00    	nopw   0x0(%rax,%rax,1)

0000000000001190 <frame_dummy>:
    1190:	55                   	push   %rbp
    1191:	48 89 e5             	mov    %rsp,%rbp
    1194:	5d                   	pop    %rbp
    1195:	e9 66 ff ff ff       	jmpq   1100 <register_tm_clones>

000000000000119a <usage>:
    119a:	48 83 ec 08          	sub    $0x8,%rsp
    119e:	48 89 fa             	mov    %rdi,%rdx
    11a1:	83 3d 40 42 20 00 00 	cmpl   $0x0,0x204240(%rip)        # 2053e8 <is_checker>
    11a8:	74 50                	je     11fa <usage+0x60>
    11aa:	48 8d 35 c7 20 00 00 	lea    0x20c7(%rip),%rsi        # 3278 <_IO_stdin_used+0x8>
    11b1:	bf 01 00 00 00       	mov    $0x1,%edi
    11b6:	b8 00 00 00 00       	mov    $0x0,%eax
    11bb:	e8 20 fe ff ff       	callq  fe0 <__printf_chk@plt>
    11c0:	48 8d 3d e9 20 00 00 	lea    0x20e9(%rip),%rdi        # 32b0 <_IO_stdin_used+0x40>
    11c7:	e8 f4 fc ff ff       	callq  ec0 <puts@plt>
    11cc:	48 8d 3d 55 22 00 00 	lea    0x2255(%rip),%rdi        # 3428 <_IO_stdin_used+0x1b8>
    11d3:	e8 e8 fc ff ff       	callq  ec0 <puts@plt>
    11d8:	48 8d 3d f9 20 00 00 	lea    0x20f9(%rip),%rdi        # 32d8 <_IO_stdin_used+0x68>
    11df:	e8 dc fc ff ff       	callq  ec0 <puts@plt>
    11e4:	48 8d 3d 57 22 00 00 	lea    0x2257(%rip),%rdi        # 3442 <_IO_stdin_used+0x1d2>
    11eb:	e8 d0 fc ff ff       	callq  ec0 <puts@plt>
    11f0:	bf 00 00 00 00       	mov    $0x0,%edi
    11f5:	e8 36 fe ff ff       	callq  1030 <exit@plt>
    11fa:	48 8d 35 5d 22 00 00 	lea    0x225d(%rip),%rsi        # 345e <_IO_stdin_used+0x1ee>
    1201:	bf 01 00 00 00       	mov    $0x1,%edi
    1206:	b8 00 00 00 00       	mov    $0x0,%eax
    120b:	e8 d0 fd ff ff       	callq  fe0 <__printf_chk@plt>
    1210:	48 8d 3d e9 20 00 00 	lea    0x20e9(%rip),%rdi        # 3300 <_IO_stdin_used+0x90>
    1217:	e8 a4 fc ff ff       	callq  ec0 <puts@plt>
    121c:	48 8d 3d 05 21 00 00 	lea    0x2105(%rip),%rdi        # 3328 <_IO_stdin_used+0xb8>
    1223:	e8 98 fc ff ff       	callq  ec0 <puts@plt>
    1228:	48 8d 3d 4d 22 00 00 	lea    0x224d(%rip),%rdi        # 347c <_IO_stdin_used+0x20c>
    122f:	e8 8c fc ff ff       	callq  ec0 <puts@plt>
    1234:	eb ba                	jmp    11f0 <usage+0x56>

0000000000001236 <initialize_target>:
    1236:	55                   	push   %rbp
    1237:	53                   	push   %rbx
    1238:	48 81 ec 18 21 00 00 	sub    $0x2118,%rsp
    123f:	89 f5                	mov    %esi,%ebp
    1241:	64 48 8b 04 25 28 00 	mov    %fs:0x28,%rax
    1248:	00 00 
    124a:	48 89 84 24 08 21 00 	mov    %rax,0x2108(%rsp)
    1251:	00 
    1252:	31 c0                	xor    %eax,%eax
    1254:	89 3d 7e 41 20 00    	mov    %edi,0x20417e(%rip)        # 2053d8 <check_level>
    125a:	8b 3d b0 3d 20 00    	mov    0x203db0(%rip),%edi        # 205010 <target_id>
    1260:	e8 68 1f 00 00       	callq  31cd <gencookie>
    1265:	89 05 79 41 20 00    	mov    %eax,0x204179(%rip)        # 2053e4 <cookie>
    126b:	89 c7                	mov    %eax,%edi
    126d:	e8 5b 1f 00 00       	callq  31cd <gencookie>
    1272:	89 05 68 41 20 00    	mov    %eax,0x204168(%rip)        # 2053e0 <authkey>
    1278:	8b 05 92 3d 20 00    	mov    0x203d92(%rip),%eax        # 205010 <target_id>
    127e:	8d 78 01             	lea    0x1(%rax),%edi
    1281:	e8 0a fc ff ff       	callq  e90 <srandom@plt>
    1286:	e8 15 fd ff ff       	callq  fa0 <random@plt>
    128b:	89 c7                	mov    %eax,%edi
    128d:	e8 1a 03 00 00       	callq  15ac <scramble>
    1292:	89 c3                	mov    %eax,%ebx
    1294:	85 ed                	test   %ebp,%ebp
    1296:	75 54                	jne    12ec <initialize_target+0xb6>
    1298:	b8 00 00 00 00       	mov    $0x0,%eax
    129d:	01 d8                	add    %ebx,%eax
    129f:	0f b7 c0             	movzwl %ax,%eax
    12a2:	8d 04 c5 00 01 00 00 	lea    0x100(,%rax,8),%eax
    12a9:	89 c0                	mov    %eax,%eax
    12ab:	48 89 05 ae 40 20 00 	mov    %rax,0x2040ae(%rip)        # 205360 <buf_offset>
    12b2:	c6 05 4f 4d 20 00 72 	movb   $0x72,0x204d4f(%rip)        # 206008 <target_prefix>
    12b9:	83 3d a8 40 20 00 00 	cmpl   $0x0,0x2040a8(%rip)        # 205368 <notify>
    12c0:	74 09                	je     12cb <initialize_target+0x95>
    12c2:	83 3d 1f 41 20 00 00 	cmpl   $0x0,0x20411f(%rip)        # 2053e8 <is_checker>
    12c9:	74 39                	je     1304 <initialize_target+0xce>
    12cb:	48 8b 84 24 08 21 00 	mov    0x2108(%rsp),%rax
    12d2:	00 
    12d3:	64 48 33 04 25 28 00 	xor    %fs:0x28,%rax
    12da:	00 00 
    12dc:	0f 85 da 00 00 00    	jne    13bc <initialize_target+0x186>
    12e2:	48 81 c4 18 21 00 00 	add    $0x2118,%rsp
    12e9:	5b                   	pop    %rbx
    12ea:	5d                   	pop    %rbp
    12eb:	c3                   	retq   
    12ec:	bf 00 00 00 00       	mov    $0x0,%edi
    12f1:	e8 9a fc ff ff       	callq  f90 <time@plt>
    12f6:	89 c7                	mov    %eax,%edi
    12f8:	e8 93 fb ff ff       	callq  e90 <srandom@plt>
    12fd:	e8 9e fc ff ff       	callq  fa0 <random@plt>
    1302:	eb 99                	jmp    129d <initialize_target+0x67>
    1304:	48 89 e7             	mov    %rsp,%rdi
    1307:	be 00 01 00 00       	mov    $0x100,%esi
    130c:	e8 0f fd ff ff       	callq  1020 <gethostname@plt>
    1311:	89 c5                	mov    %eax,%ebp
    1313:	85 c0                	test   %eax,%eax
    1315:	75 26                	jne    133d <initialize_target+0x107>
    1317:	89 c3                	mov    %eax,%ebx
    1319:	48 63 c3             	movslq %ebx,%rax
    131c:	48 8d 15 1d 3d 20 00 	lea    0x203d1d(%rip),%rdx        # 205040 <host_table>
    1323:	48 8b 3c c2          	mov    (%rdx,%rax,8),%rdi
    1327:	48 85 ff             	test   %rdi,%rdi
    132a:	74 2c                	je     1358 <initialize_target+0x122>
    132c:	48 89 e6             	mov    %rsp,%rsi
    132f:	e8 3c fb ff ff       	callq  e70 <strcasecmp@plt>
    1334:	85 c0                	test   %eax,%eax
    1336:	74 1b                	je     1353 <initialize_target+0x11d>
    1338:	83 c3 01             	add    $0x1,%ebx
    133b:	eb dc                	jmp    1319 <initialize_target+0xe3>
    133d:	48 8d 3d 14 20 00 00 	lea    0x2014(%rip),%rdi        # 3358 <_IO_stdin_used+0xe8>
    1344:	e8 77 fb ff ff       	callq  ec0 <puts@plt>
    1349:	bf 08 00 00 00       	mov    $0x8,%edi
    134e:	e8 dd fc ff ff       	callq  1030 <exit@plt>
    1353:	bd 01 00 00 00       	mov    $0x1,%ebp
    1358:	85 ed                	test   %ebp,%ebp
    135a:	74 3d                	je     1399 <initialize_target+0x163>
    135c:	48 8d bc 24 00 01 00 	lea    0x100(%rsp),%rdi
    1363:	00 
    1364:	e8 94 1b 00 00       	callq  2efd <init_driver>
    1369:	85 c0                	test   %eax,%eax
    136b:	0f 89 5a ff ff ff    	jns    12cb <initialize_target+0x95>
    1371:	48 8d 94 24 00 01 00 	lea    0x100(%rsp),%rdx
    1378:	00 
    1379:	48 8d 35 50 20 00 00 	lea    0x2050(%rip),%rsi        # 33d0 <_IO_stdin_used+0x160>
    1380:	bf 01 00 00 00       	mov    $0x1,%edi
    1385:	b8 00 00 00 00       	mov    $0x0,%eax
    138a:	e8 51 fc ff ff       	callq  fe0 <__printf_chk@plt>
    138f:	bf 08 00 00 00       	mov    $0x8,%edi
    1394:	e8 97 fc ff ff       	callq  1030 <exit@plt>
    1399:	48 89 e2             	mov    %rsp,%rdx
    139c:	48 8d 35 ed 1f 00 00 	lea    0x1fed(%rip),%rsi        # 3390 <_IO_stdin_used+0x120>
    13a3:	bf 01 00 00 00       	mov    $0x1,%edi
    13a8:	b8 00 00 00 00       	mov    $0x0,%eax
    13ad:	e8 2e fc ff ff       	callq  fe0 <__printf_chk@plt>
    13b2:	bf 08 00 00 00       	mov    $0x8,%edi
    13b7:	e8 74 fc ff ff       	callq  1030 <exit@plt>
    13bc:	e8 1f fb ff ff       	callq  ee0 <__stack_chk_fail@plt>

00000000000013c1 <main>:
    13c1:	41 56                	push   %r14
    13c3:	41 55                	push   %r13
    13c5:	41 54                	push   %r12
    13c7:	55                   	push   %rbp
    13c8:	53                   	push   %rbx
    13c9:	41 89 fc             	mov    %edi,%r12d
    13cc:	48 89 f3             	mov    %rsi,%rbx
    13cf:	48 8d 35 2e 0e 00 00 	lea    0xe2e(%rip),%rsi        # 2204 <seghandler>
    13d6:	bf 0b 00 00 00       	mov    $0xb,%edi
    13db:	e8 60 fb ff ff       	callq  f40 <signal@plt>
    13e0:	48 8d 35 c9 0d 00 00 	lea    0xdc9(%rip),%rsi        # 21b0 <bushandler>
    13e7:	bf 07 00 00 00       	mov    $0x7,%edi
    13ec:	e8 4f fb ff ff       	callq  f40 <signal@plt>
    13f1:	48 8d 35 60 0e 00 00 	lea    0xe60(%rip),%rsi        # 2258 <illegalhandler>
    13f8:	bf 04 00 00 00       	mov    $0x4,%edi
    13fd:	e8 3e fb ff ff       	callq  f40 <signal@plt>
    1402:	83 3d df 3f 20 00 00 	cmpl   $0x0,0x203fdf(%rip)        # 2053e8 <is_checker>
    1409:	75 26                	jne    1431 <main+0x70>
    140b:	48 8d 2d 83 20 00 00 	lea    0x2083(%rip),%rbp        # 3495 <_IO_stdin_used+0x225>
    1412:	48 8b 05 67 3f 20 00 	mov    0x203f67(%rip),%rax        # 205380 <stdin@@GLIBC_2.2.5>
    1419:	48 89 05 b0 3f 20 00 	mov    %rax,0x203fb0(%rip)        # 2053d0 <infile>
    1420:	41 bd 00 00 00 00    	mov    $0x0,%r13d
    1426:	41 be 00 00 00 00    	mov    $0x0,%r14d
    142c:	e9 8d 00 00 00       	jmpq   14be <main+0xfd>
    1431:	48 8d 35 74 0e 00 00 	lea    0xe74(%rip),%rsi        # 22ac <sigalrmhandler>
    1438:	bf 0e 00 00 00       	mov    $0xe,%edi
    143d:	e8 fe fa ff ff       	callq  f40 <signal@plt>
    1442:	bf 05 00 00 00       	mov    $0x5,%edi
    1447:	e8 c4 fa ff ff       	callq  f10 <alarm@plt>
    144c:	48 8d 2d 47 20 00 00 	lea    0x2047(%rip),%rbp        # 349a <_IO_stdin_used+0x22a>
    1453:	eb bd                	jmp    1412 <main+0x51>
    1455:	48 8b 3b             	mov    (%rbx),%rdi
    1458:	e8 3d fd ff ff       	callq  119a <usage>
    145d:	48 8d 35 f1 22 00 00 	lea    0x22f1(%rip),%rsi        # 3755 <_IO_stdin_used+0x4e5>
    1464:	48 8b 3d 1d 3f 20 00 	mov    0x203f1d(%rip),%rdi        # 205388 <optarg@@GLIBC_2.2.5>
    146b:	e8 80 fb ff ff       	callq  ff0 <fopen@plt>
    1470:	48 89 05 59 3f 20 00 	mov    %rax,0x203f59(%rip)        # 2053d0 <infile>
    1477:	48 85 c0             	test   %rax,%rax
    147a:	75 42                	jne    14be <main+0xfd>
    147c:	48 8b 0d 05 3f 20 00 	mov    0x203f05(%rip),%rcx        # 205388 <optarg@@GLIBC_2.2.5>
    1483:	48 8d 15 18 20 00 00 	lea    0x2018(%rip),%rdx        # 34a2 <_IO_stdin_used+0x232>
    148a:	be 01 00 00 00       	mov    $0x1,%esi
    148f:	48 8b 3d 0a 3f 20 00 	mov    0x203f0a(%rip),%rdi        # 2053a0 <stderr@@GLIBC_2.2.5>
    1496:	e8 b5 fb ff ff       	callq  1050 <__fprintf_chk@plt>
    149b:	b8 01 00 00 00       	mov    $0x1,%eax
    14a0:	e9 d9 00 00 00       	jmpq   157e <main+0x1bd>
    14a5:	ba 10 00 00 00       	mov    $0x10,%edx
    14aa:	be 00 00 00 00       	mov    $0x0,%esi
    14af:	48 8b 3d d2 3e 20 00 	mov    0x203ed2(%rip),%rdi        # 205388 <optarg@@GLIBC_2.2.5>
    14b6:	e8 55 fb ff ff       	callq  1010 <strtoul@plt>
    14bb:	41 89 c6             	mov    %eax,%r14d
    14be:	48 89 ea             	mov    %rbp,%rdx
    14c1:	48 89 de             	mov    %rbx,%rsi
    14c4:	44 89 e7             	mov    %r12d,%edi
    14c7:	e8 34 fb ff ff       	callq  1000 <getopt@plt>
    14cc:	3c ff                	cmp    $0xff,%al
    14ce:	74 62                	je     1532 <main+0x171>
    14d0:	0f be d0             	movsbl %al,%edx
    14d3:	83 e8 61             	sub    $0x61,%eax
    14d6:	3c 10                	cmp    $0x10,%al
    14d8:	77 3a                	ja     1514 <main+0x153>
    14da:	0f b6 c0             	movzbl %al,%eax
    14dd:	48 8d 0d fc 1f 00 00 	lea    0x1ffc(%rip),%rcx        # 34e0 <_IO_stdin_used+0x270>
    14e4:	48 63 04 81          	movslq (%rcx,%rax,4),%rax
    14e8:	48 01 c8             	add    %rcx,%rax
    14eb:	ff e0                	jmpq   *%rax
    14ed:	ba 0a 00 00 00       	mov    $0xa,%edx
    14f2:	be 00 00 00 00       	mov    $0x0,%esi
    14f7:	48 8b 3d 8a 3e 20 00 	mov    0x203e8a(%rip),%rdi        # 205388 <optarg@@GLIBC_2.2.5>
    14fe:	e8 6d fa ff ff       	callq  f70 <strtol@plt>
    1503:	41 89 c5             	mov    %eax,%r13d
    1506:	eb b6                	jmp    14be <main+0xfd>
    1508:	c7 05 56 3e 20 00 00 	movl   $0x0,0x203e56(%rip)        # 205368 <notify>
    150f:	00 00 00 
    1512:	eb aa                	jmp    14be <main+0xfd>
    1514:	48 8d 35 a4 1f 00 00 	lea    0x1fa4(%rip),%rsi        # 34bf <_IO_stdin_used+0x24f>
    151b:	bf 01 00 00 00       	mov    $0x1,%edi
    1520:	b8 00 00 00 00       	mov    $0x0,%eax
    1525:	e8 b6 fa ff ff       	callq  fe0 <__printf_chk@plt>
    152a:	48 8b 3b             	mov    (%rbx),%rdi
    152d:	e8 68 fc ff ff       	callq  119a <usage>
    1532:	be 01 00 00 00       	mov    $0x1,%esi
    1537:	44 89 ef             	mov    %r13d,%edi
    153a:	e8 f7 fc ff ff       	callq  1236 <initialize_target>
    153f:	83 3d a2 3e 20 00 00 	cmpl   $0x0,0x203ea2(%rip)        # 2053e8 <is_checker>
    1546:	74 09                	je     1551 <main+0x190>
    1548:	44 39 35 91 3e 20 00 	cmp    %r14d,0x203e91(%rip)        # 2053e0 <authkey>
    154f:	75 36                	jne    1587 <main+0x1c6>
    1551:	8b 15 8d 3e 20 00    	mov    0x203e8d(%rip),%edx        # 2053e4 <cookie>
    1557:	48 8d 35 74 1f 00 00 	lea    0x1f74(%rip),%rsi        # 34d2 <_IO_stdin_used+0x262>
    155e:	bf 01 00 00 00       	mov    $0x1,%edi
    1563:	b8 00 00 00 00       	mov    $0x0,%eax
    1568:	e8 73 fa ff ff       	callq  fe0 <__printf_chk@plt>
    156d:	48 8b 3d ec 3d 20 00 	mov    0x203dec(%rip),%rdi        # 205360 <buf_offset>
    1574:	e8 8a 0d 00 00       	callq  2303 <launch>
    1579:	b8 00 00 00 00       	mov    $0x0,%eax
    157e:	5b                   	pop    %rbx
    157f:	5d                   	pop    %rbp
    1580:	41 5c                	pop    %r12
    1582:	41 5d                	pop    %r13
    1584:	41 5e                	pop    %r14
    1586:	c3                   	retq   
    1587:	44 89 f2             	mov    %r14d,%edx
    158a:	48 8d 35 67 1e 00 00 	lea    0x1e67(%rip),%rsi        # 33f8 <_IO_stdin_used+0x188>
    1591:	bf 01 00 00 00       	mov    $0x1,%edi
    1596:	b8 00 00 00 00       	mov    $0x0,%eax
    159b:	e8 40 fa ff ff       	callq  fe0 <__printf_chk@plt>
    15a0:	b8 00 00 00 00       	mov    $0x0,%eax
    15a5:	e8 66 08 00 00       	callq  1e10 <check_fail>
    15aa:	eb a5                	jmp    1551 <main+0x190>

00000000000015ac <scramble>:
    15ac:	48 83 ec 38          	sub    $0x38,%rsp
    15b0:	64 48 8b 04 25 28 00 	mov    %fs:0x28,%rax
    15b7:	00 00 
    15b9:	48 89 44 24 28       	mov    %rax,0x28(%rsp)
    15be:	31 c0                	xor    %eax,%eax
    15c0:	eb 10                	jmp    15d2 <scramble+0x26>
    15c2:	69 d0 9a 9d 00 00    	imul   $0x9d9a,%eax,%edx
    15c8:	01 fa                	add    %edi,%edx
    15ca:	89 c1                	mov    %eax,%ecx
    15cc:	89 14 8c             	mov    %edx,(%rsp,%rcx,4)
    15cf:	83 c0 01             	add    $0x1,%eax
    15d2:	83 f8 09             	cmp    $0x9,%eax
    15d5:	76 eb                	jbe    15c2 <scramble+0x16>
    15d7:	8b 44 24 10          	mov    0x10(%rsp),%eax
    15db:	69 c0 f1 b6 00 00    	imul   $0xb6f1,%eax,%eax
    15e1:	89 44 24 10          	mov    %eax,0x10(%rsp)
    15e5:	8b 44 24 18          	mov    0x18(%rsp),%eax
    15e9:	6b c0 37             	imul   $0x37,%eax,%eax
    15ec:	89 44 24 18          	mov    %eax,0x18(%rsp)
    15f0:	8b 44 24 20          	mov    0x20(%rsp),%eax
    15f4:	69 c0 44 cf 00 00    	imul   $0xcf44,%eax,%eax
    15fa:	89 44 24 20          	mov    %eax,0x20(%rsp)
    15fe:	8b 44 24 24          	mov    0x24(%rsp),%eax
    1602:	69 c0 6f a4 00 00    	imul   $0xa46f,%eax,%eax
    1608:	89 44 24 24          	mov    %eax,0x24(%rsp)
    160c:	8b 44 24 0c          	mov    0xc(%rsp),%eax
    1610:	69 c0 69 6b 00 00    	imul   $0x6b69,%eax,%eax
    1616:	89 44 24 0c          	mov    %eax,0xc(%rsp)
    161a:	8b 44 24 20          	mov    0x20(%rsp),%eax
    161e:	69 c0 b1 c0 00 00    	imul   $0xc0b1,%eax,%eax
    1624:	89 44 24 20          	mov    %eax,0x20(%rsp)
    1628:	8b 04 24             	mov    (%rsp),%eax
    162b:	69 c0 4c 8b 00 00    	imul   $0x8b4c,%eax,%eax
    1631:	89 04 24             	mov    %eax,(%rsp)
    1634:	8b 44 24 24          	mov    0x24(%rsp),%eax
    1638:	69 c0 4a 2d 00 00    	imul   $0x2d4a,%eax,%eax
    163e:	89 44 24 24          	mov    %eax,0x24(%rsp)
    1642:	8b 44 24 10          	mov    0x10(%rsp),%eax
    1646:	69 c0 7f db 00 00    	imul   $0xdb7f,%eax,%eax
    164c:	89 44 24 10          	mov    %eax,0x10(%rsp)
    1650:	8b 04 24             	mov    (%rsp),%eax
    1653:	69 c0 fc c9 00 00    	imul   $0xc9fc,%eax,%eax
    1659:	89 04 24             	mov    %eax,(%rsp)
    165c:	8b 44 24 10          	mov    0x10(%rsp),%eax
    1660:	69 c0 bf 37 00 00    	imul   $0x37bf,%eax,%eax
    1666:	89 44 24 10          	mov    %eax,0x10(%rsp)
    166a:	8b 44 24 20          	mov    0x20(%rsp),%eax
    166e:	69 c0 e0 b1 00 00    	imul   $0xb1e0,%eax,%eax
    1674:	89 44 24 20          	mov    %eax,0x20(%rsp)
    1678:	8b 44 24 10          	mov    0x10(%rsp),%eax
    167c:	69 c0 ba 41 00 00    	imul   $0x41ba,%eax,%eax
    1682:	89 44 24 10          	mov    %eax,0x10(%rsp)
    1686:	8b 44 24 1c          	mov    0x1c(%rsp),%eax
    168a:	69 c0 34 05 00 00    	imul   $0x534,%eax,%eax
    1690:	89 44 24 1c          	mov    %eax,0x1c(%rsp)
    1694:	8b 44 24 1c          	mov    0x1c(%rsp),%eax
    1698:	69 c0 1c 2b 00 00    	imul   $0x2b1c,%eax,%eax
    169e:	89 44 24 1c          	mov    %eax,0x1c(%rsp)
    16a2:	8b 44 24 0c          	mov    0xc(%rsp),%eax
    16a6:	69 c0 ba f9 00 00    	imul   $0xf9ba,%eax,%eax
    16ac:	89 44 24 0c          	mov    %eax,0xc(%rsp)
    16b0:	8b 44 24 14          	mov    0x14(%rsp),%eax
    16b4:	69 c0 09 5a 00 00    	imul   $0x5a09,%eax,%eax
    16ba:	89 44 24 14          	mov    %eax,0x14(%rsp)
    16be:	8b 44 24 1c          	mov    0x1c(%rsp),%eax
    16c2:	69 c0 ca 6f 00 00    	imul   $0x6fca,%eax,%eax
    16c8:	89 44 24 1c          	mov    %eax,0x1c(%rsp)
    16cc:	8b 44 24 14          	mov    0x14(%rsp),%eax
    16d0:	69 c0 a5 1d 00 00    	imul   $0x1da5,%eax,%eax
    16d6:	89 44 24 14          	mov    %eax,0x14(%rsp)
    16da:	8b 44 24 18          	mov    0x18(%rsp),%eax
    16de:	69 c0 1f f7 00 00    	imul   $0xf71f,%eax,%eax
    16e4:	89 44 24 18          	mov    %eax,0x18(%rsp)
    16e8:	8b 44 24 20          	mov    0x20(%rsp),%eax
    16ec:	69 c0 14 c7 00 00    	imul   $0xc714,%eax,%eax
    16f2:	89 44 24 20          	mov    %eax,0x20(%rsp)
    16f6:	8b 44 24 04          	mov    0x4(%rsp),%eax
    16fa:	69 c0 cf 80 00 00    	imul   $0x80cf,%eax,%eax
    1700:	89 44 24 04          	mov    %eax,0x4(%rsp)
    1704:	8b 44 24 14          	mov    0x14(%rsp),%eax
    1708:	69 c0 1c 20 00 00    	imul   $0x201c,%eax,%eax
    170e:	89 44 24 14          	mov    %eax,0x14(%rsp)
    1712:	8b 44 24 0c          	mov    0xc(%rsp),%eax
    1716:	69 c0 60 53 00 00    	imul   $0x5360,%eax,%eax
    171c:	89 44 24 0c          	mov    %eax,0xc(%rsp)
    1720:	8b 44 24 18          	mov    0x18(%rsp),%eax
    1724:	69 c0 26 c8 00 00    	imul   $0xc826,%eax,%eax
    172a:	89 44 24 18          	mov    %eax,0x18(%rsp)
    172e:	8b 44 24 14          	mov    0x14(%rsp),%eax
    1732:	69 c0 f8 b8 00 00    	imul   $0xb8f8,%eax,%eax
    1738:	89 44 24 14          	mov    %eax,0x14(%rsp)
    173c:	8b 04 24             	mov    (%rsp),%eax
    173f:	69 c0 18 96 00 00    	imul   $0x9618,%eax,%eax
    1745:	89 04 24             	mov    %eax,(%rsp)
    1748:	8b 44 24 20          	mov    0x20(%rsp),%eax
    174c:	69 c0 f4 43 00 00    	imul   $0x43f4,%eax,%eax
    1752:	89 44 24 20          	mov    %eax,0x20(%rsp)
    1756:	8b 04 24             	mov    (%rsp),%eax
    1759:	69 c0 26 50 00 00    	imul   $0x5026,%eax,%eax
    175f:	89 04 24             	mov    %eax,(%rsp)
    1762:	8b 44 24 10          	mov    0x10(%rsp),%eax
    1766:	69 c0 f2 33 00 00    	imul   $0x33f2,%eax,%eax
    176c:	89 44 24 10          	mov    %eax,0x10(%rsp)
    1770:	8b 04 24             	mov    (%rsp),%eax
    1773:	69 c0 ff d0 00 00    	imul   $0xd0ff,%eax,%eax
    1779:	89 04 24             	mov    %eax,(%rsp)
    177c:	8b 44 24 0c          	mov    0xc(%rsp),%eax
    1780:	69 c0 50 5d 00 00    	imul   $0x5d50,%eax,%eax
    1786:	89 44 24 0c          	mov    %eax,0xc(%rsp)
    178a:	8b 04 24             	mov    (%rsp),%eax
    178d:	69 c0 9d 27 00 00    	imul   $0x279d,%eax,%eax
    1793:	89 04 24             	mov    %eax,(%rsp)
    1796:	8b 04 24             	mov    (%rsp),%eax
    1799:	69 c0 56 54 00 00    	imul   $0x5456,%eax,%eax
    179f:	89 04 24             	mov    %eax,(%rsp)
    17a2:	8b 44 24 04          	mov    0x4(%rsp),%eax
    17a6:	69 c0 53 e1 00 00    	imul   $0xe153,%eax,%eax
    17ac:	89 44 24 04          	mov    %eax,0x4(%rsp)
    17b0:	8b 44 24 1c          	mov    0x1c(%rsp),%eax
    17b4:	69 c0 50 ce 00 00    	imul   $0xce50,%eax,%eax
    17ba:	89 44 24 1c          	mov    %eax,0x1c(%rsp)
    17be:	8b 44 24 0c          	mov    0xc(%rsp),%eax
    17c2:	69 c0 45 03 00 00    	imul   $0x345,%eax,%eax
    17c8:	89 44 24 0c          	mov    %eax,0xc(%rsp)
    17cc:	8b 44 24 08          	mov    0x8(%rsp),%eax
    17d0:	69 c0 c8 fa 00 00    	imul   $0xfac8,%eax,%eax
    17d6:	89 44 24 08          	mov    %eax,0x8(%rsp)
    17da:	8b 44 24 0c          	mov    0xc(%rsp),%eax
    17de:	69 c0 39 fd 00 00    	imul   $0xfd39,%eax,%eax
    17e4:	89 44 24 0c          	mov    %eax,0xc(%rsp)
    17e8:	8b 44 24 0c          	mov    0xc(%rsp),%eax
    17ec:	69 c0 fd 1e 00 00    	imul   $0x1efd,%eax,%eax
    17f2:	89 44 24 0c          	mov    %eax,0xc(%rsp)
    17f6:	8b 44 24 04          	mov    0x4(%rsp),%eax
    17fa:	69 c0 85 6b 00 00    	imul   $0x6b85,%eax,%eax
    1800:	89 44 24 04          	mov    %eax,0x4(%rsp)
    1804:	8b 44 24 08          	mov    0x8(%rsp),%eax
    1808:	69 c0 44 c5 00 00    	imul   $0xc544,%eax,%eax
    180e:	89 44 24 08          	mov    %eax,0x8(%rsp)
    1812:	8b 44 24 10          	mov    0x10(%rsp),%eax
    1816:	69 c0 cd 42 00 00    	imul   $0x42cd,%eax,%eax
    181c:	89 44 24 10          	mov    %eax,0x10(%rsp)
    1820:	8b 04 24             	mov    (%rsp),%eax
    1823:	69 c0 70 d9 00 00    	imul   $0xd970,%eax,%eax
    1829:	89 04 24             	mov    %eax,(%rsp)
    182c:	8b 04 24             	mov    (%rsp),%eax
    182f:	69 c0 60 52 00 00    	imul   $0x5260,%eax,%eax
    1835:	89 04 24             	mov    %eax,(%rsp)
    1838:	8b 44 24 18          	mov    0x18(%rsp),%eax
    183c:	69 c0 36 0e 00 00    	imul   $0xe36,%eax,%eax
    1842:	89 44 24 18          	mov    %eax,0x18(%rsp)
    1846:	8b 44 24 10          	mov    0x10(%rsp),%eax
    184a:	69 c0 0e 3b 00 00    	imul   $0x3b0e,%eax,%eax
    1850:	89 44 24 10          	mov    %eax,0x10(%rsp)
    1854:	8b 44 24 24          	mov    0x24(%rsp),%eax
    1858:	69 c0 69 4e 00 00    	imul   $0x4e69,%eax,%eax
    185e:	89 44 24 24          	mov    %eax,0x24(%rsp)
    1862:	8b 44 24 04          	mov    0x4(%rsp),%eax
    1866:	69 c0 a0 38 00 00    	imul   $0x38a0,%eax,%eax
    186c:	89 44 24 04          	mov    %eax,0x4(%rsp)
    1870:	8b 44 24 0c          	mov    0xc(%rsp),%eax
    1874:	69 c0 ed a7 00 00    	imul   $0xa7ed,%eax,%eax
    187a:	89 44 24 0c          	mov    %eax,0xc(%rsp)
    187e:	8b 44 24 20          	mov    0x20(%rsp),%eax
    1882:	69 c0 35 ee 00 00    	imul   $0xee35,%eax,%eax
    1888:	89 44 24 20          	mov    %eax,0x20(%rsp)
    188c:	8b 44 24 18          	mov    0x18(%rsp),%eax
    1890:	69 c0 5b c2 00 00    	imul   $0xc25b,%eax,%eax
    1896:	89 44 24 18          	mov    %eax,0x18(%rsp)
    189a:	8b 44 24 04          	mov    0x4(%rsp),%eax
    189e:	69 c0 5d c5 00 00    	imul   $0xc55d,%eax,%eax
    18a4:	89 44 24 04          	mov    %eax,0x4(%rsp)
    18a8:	8b 44 24 08          	mov    0x8(%rsp),%eax
    18ac:	69 c0 dc 14 00 00    	imul   $0x14dc,%eax,%eax
    18b2:	89 44 24 08          	mov    %eax,0x8(%rsp)
    18b6:	8b 44 24 18          	mov    0x18(%rsp),%eax
    18ba:	69 c0 4c 0b 00 00    	imul   $0xb4c,%eax,%eax
    18c0:	89 44 24 18          	mov    %eax,0x18(%rsp)
    18c4:	8b 44 24 18          	mov    0x18(%rsp),%eax
    18c8:	69 c0 f5 87 00 00    	imul   $0x87f5,%eax,%eax
    18ce:	89 44 24 18          	mov    %eax,0x18(%rsp)
    18d2:	8b 44 24 18          	mov    0x18(%rsp),%eax
    18d6:	69 c0 cf 0b 00 00    	imul   $0xbcf,%eax,%eax
    18dc:	89 44 24 18          	mov    %eax,0x18(%rsp)
    18e0:	8b 44 24 0c          	mov    0xc(%rsp),%eax
    18e4:	69 c0 70 78 00 00    	imul   $0x7870,%eax,%eax
    18ea:	89 44 24 0c          	mov    %eax,0xc(%rsp)
    18ee:	8b 44 24 10          	mov    0x10(%rsp),%eax
    18f2:	69 c0 72 56 00 00    	imul   $0x5672,%eax,%eax
    18f8:	89 44 24 10          	mov    %eax,0x10(%rsp)
    18fc:	8b 44 24 24          	mov    0x24(%rsp),%eax
    1900:	69 c0 91 e1 00 00    	imul   $0xe191,%eax,%eax
    1906:	89 44 24 24          	mov    %eax,0x24(%rsp)
    190a:	8b 44 24 04          	mov    0x4(%rsp),%eax
    190e:	69 c0 43 5f 00 00    	imul   $0x5f43,%eax,%eax
    1914:	89 44 24 04          	mov    %eax,0x4(%rsp)
    1918:	8b 44 24 24          	mov    0x24(%rsp),%eax
    191c:	69 c0 33 cc 00 00    	imul   $0xcc33,%eax,%eax
    1922:	89 44 24 24          	mov    %eax,0x24(%rsp)
    1926:	8b 44 24 10          	mov    0x10(%rsp),%eax
    192a:	69 c0 4e 5b 00 00    	imul   $0x5b4e,%eax,%eax
    1930:	89 44 24 10          	mov    %eax,0x10(%rsp)
    1934:	8b 44 24 10          	mov    0x10(%rsp),%eax
    1938:	69 c0 fd fc 00 00    	imul   $0xfcfd,%eax,%eax
    193e:	89 44 24 10          	mov    %eax,0x10(%rsp)
    1942:	8b 04 24             	mov    (%rsp),%eax
    1945:	69 c0 5b bd 00 00    	imul   $0xbd5b,%eax,%eax
    194b:	89 04 24             	mov    %eax,(%rsp)
    194e:	8b 44 24 08          	mov    0x8(%rsp),%eax
    1952:	69 c0 e2 ad 00 00    	imul   $0xade2,%eax,%eax
    1958:	89 44 24 08          	mov    %eax,0x8(%rsp)
    195c:	8b 44 24 0c          	mov    0xc(%rsp),%eax
    1960:	69 c0 28 1b 00 00    	imul   $0x1b28,%eax,%eax
    1966:	89 44 24 0c          	mov    %eax,0xc(%rsp)
    196a:	8b 44 24 10          	mov    0x10(%rsp),%eax
    196e:	69 c0 0b 9d 00 00    	imul   $0x9d0b,%eax,%eax
    1974:	89 44 24 10          	mov    %eax,0x10(%rsp)
    1978:	8b 44 24 24          	mov    0x24(%rsp),%eax
    197c:	69 c0 60 2d 00 00    	imul   $0x2d60,%eax,%eax
    1982:	89 44 24 24          	mov    %eax,0x24(%rsp)
    1986:	8b 44 24 0c          	mov    0xc(%rsp),%eax
    198a:	69 c0 1c a3 00 00    	imul   $0xa31c,%eax,%eax
    1990:	89 44 24 0c          	mov    %eax,0xc(%rsp)
    1994:	8b 44 24 18          	mov    0x18(%rsp),%eax
    1998:	69 c0 c1 e5 00 00    	imul   $0xe5c1,%eax,%eax
    199e:	89 44 24 18          	mov    %eax,0x18(%rsp)
    19a2:	8b 44 24 1c          	mov    0x1c(%rsp),%eax
    19a6:	69 c0 7f af 00 00    	imul   $0xaf7f,%eax,%eax
    19ac:	89 44 24 1c          	mov    %eax,0x1c(%rsp)
    19b0:	8b 44 24 04          	mov    0x4(%rsp),%eax
    19b4:	69 c0 4c 78 00 00    	imul   $0x784c,%eax,%eax
    19ba:	89 44 24 04          	mov    %eax,0x4(%rsp)
    19be:	8b 44 24 18          	mov    0x18(%rsp),%eax
    19c2:	69 c0 2e 40 00 00    	imul   $0x402e,%eax,%eax
    19c8:	89 44 24 18          	mov    %eax,0x18(%rsp)
    19cc:	8b 44 24 24          	mov    0x24(%rsp),%eax
    19d0:	69 c0 cf 79 00 00    	imul   $0x79cf,%eax,%eax
    19d6:	89 44 24 24          	mov    %eax,0x24(%rsp)
    19da:	8b 44 24 10          	mov    0x10(%rsp),%eax
    19de:	69 c0 91 77 00 00    	imul   $0x7791,%eax,%eax
    19e4:	89 44 24 10          	mov    %eax,0x10(%rsp)
    19e8:	8b 44 24 08          	mov    0x8(%rsp),%eax
    19ec:	69 c0 86 11 00 00    	imul   $0x1186,%eax,%eax
    19f2:	89 44 24 08          	mov    %eax,0x8(%rsp)
    19f6:	8b 04 24             	mov    (%rsp),%eax
    19f9:	69 c0 64 73 00 00    	imul   $0x7364,%eax,%eax
    19ff:	89 04 24             	mov    %eax,(%rsp)
    1a02:	8b 44 24 1c          	mov    0x1c(%rsp),%eax
    1a06:	69 c0 60 5e 00 00    	imul   $0x5e60,%eax,%eax
    1a0c:	89 44 24 1c          	mov    %eax,0x1c(%rsp)
    1a10:	8b 44 24 18          	mov    0x18(%rsp),%eax
    1a14:	69 c0 c3 00 00 00    	imul   $0xc3,%eax,%eax
    1a1a:	89 44 24 18          	mov    %eax,0x18(%rsp)
    1a1e:	8b 44 24 1c          	mov    0x1c(%rsp),%eax
    1a22:	69 c0 4b 15 00 00    	imul   $0x154b,%eax,%eax
    1a28:	89 44 24 1c          	mov    %eax,0x1c(%rsp)
    1a2c:	8b 04 24             	mov    (%rsp),%eax
    1a2f:	69 c0 4c c7 00 00    	imul   $0xc74c,%eax,%eax
    1a35:	89 04 24             	mov    %eax,(%rsp)
    1a38:	8b 44 24 04          	mov    0x4(%rsp),%eax
    1a3c:	69 c0 e2 1e 00 00    	imul   $0x1ee2,%eax,%eax
    1a42:	89 44 24 04          	mov    %eax,0x4(%rsp)
    1a46:	8b 44 24 20          	mov    0x20(%rsp),%eax
    1a4a:	69 c0 fa 10 00 00    	imul   $0x10fa,%eax,%eax
    1a50:	89 44 24 20          	mov    %eax,0x20(%rsp)
    1a54:	ba 00 00 00 00       	mov    $0x0,%edx
    1a59:	b8 00 00 00 00       	mov    $0x0,%eax
    1a5e:	eb 0a                	jmp    1a6a <scramble+0x4be>
    1a60:	89 d1                	mov    %edx,%ecx
    1a62:	8b 0c 8c             	mov    (%rsp,%rcx,4),%ecx
    1a65:	01 c8                	add    %ecx,%eax
    1a67:	83 c2 01             	add    $0x1,%edx
    1a6a:	83 fa 09             	cmp    $0x9,%edx
    1a6d:	76 f1                	jbe    1a60 <scramble+0x4b4>
    1a6f:	48 8b 74 24 28       	mov    0x28(%rsp),%rsi
    1a74:	64 48 33 34 25 28 00 	xor    %fs:0x28,%rsi
    1a7b:	00 00 
    1a7d:	75 05                	jne    1a84 <scramble+0x4d8>
    1a7f:	48 83 c4 38          	add    $0x38,%rsp
    1a83:	c3                   	retq   
    1a84:	e8 57 f4 ff ff       	callq  ee0 <__stack_chk_fail@plt>

0000000000001a89 <getbuf>:
    1a89:	48 83 ec 38          	sub    $0x38,%rsp
    1a8d:	48 89 e7             	mov    %rsp,%rdi
    1a90:	e8 b3 03 00 00       	callq  1e48 <Gets>
    1a95:	b8 01 00 00 00       	mov    $0x1,%eax
    1a9a:	48 83 c4 38          	add    $0x38,%rsp
    1a9e:	c3                   	retq   

0000000000001a9f <touch1>:
    1a9f:	48 83 ec 08          	sub    $0x8,%rsp
    1aa3:	c7 05 2f 39 20 00 01 	movl   $0x1,0x20392f(%rip)        # 2053dc <vlevel>
    1aaa:	00 00 00 
    1aad:	48 8d 3d f7 1a 00 00 	lea    0x1af7(%rip),%rdi        # 35ab <_IO_stdin_used+0x33b>
    1ab4:	e8 07 f4 ff ff       	callq  ec0 <puts@plt>
    1ab9:	bf 01 00 00 00       	mov    $0x1,%edi
    1abe:	e8 f5 05 00 00       	callq  20b8 <validate>
    1ac3:	bf 00 00 00 00       	mov    $0x0,%edi
    1ac8:	e8 63 f5 ff ff       	callq  1030 <exit@plt>

0000000000001acd <touch2>:
    1acd:	48 83 ec 08          	sub    $0x8,%rsp
    1ad1:	89 fa                	mov    %edi,%edx
    1ad3:	c7 05 ff 38 20 00 02 	movl   $0x2,0x2038ff(%rip)        # 2053dc <vlevel>
    1ada:	00 00 00 
    1add:	39 3d 01 39 20 00    	cmp    %edi,0x203901(%rip)        # 2053e4 <cookie>
    1ae3:	74 2a                	je     1b0f <touch2+0x42>
    1ae5:	48 8d 35 0c 1b 00 00 	lea    0x1b0c(%rip),%rsi        # 35f8 <_IO_stdin_used+0x388>
    1aec:	bf 01 00 00 00       	mov    $0x1,%edi
    1af1:	b8 00 00 00 00       	mov    $0x0,%eax
    1af6:	e8 e5 f4 ff ff       	callq  fe0 <__printf_chk@plt>
    1afb:	bf 02 00 00 00       	mov    $0x2,%edi
    1b00:	e8 83 06 00 00       	callq  2188 <fail>
    1b05:	bf 00 00 00 00       	mov    $0x0,%edi
    1b0a:	e8 21 f5 ff ff       	callq  1030 <exit@plt>
    1b0f:	48 8d 35 ba 1a 00 00 	lea    0x1aba(%rip),%rsi        # 35d0 <_IO_stdin_used+0x360>
    1b16:	bf 01 00 00 00       	mov    $0x1,%edi
    1b1b:	b8 00 00 00 00       	mov    $0x0,%eax
    1b20:	e8 bb f4 ff ff       	callq  fe0 <__printf_chk@plt>
    1b25:	bf 02 00 00 00       	mov    $0x2,%edi
    1b2a:	e8 89 05 00 00       	callq  20b8 <validate>
    1b2f:	eb d4                	jmp    1b05 <touch2+0x38>

0000000000001b31 <hexmatch>:
    1b31:	41 54                	push   %r12
    1b33:	55                   	push   %rbp
    1b34:	53                   	push   %rbx
    1b35:	48 83 c4 80          	add    $0xffffffffffffff80,%rsp
    1b39:	89 fd                	mov    %edi,%ebp
    1b3b:	48 89 f3             	mov    %rsi,%rbx
    1b3e:	64 48 8b 04 25 28 00 	mov    %fs:0x28,%rax
    1b45:	00 00 
    1b47:	48 89 44 24 78       	mov    %rax,0x78(%rsp)
    1b4c:	31 c0                	xor    %eax,%eax
    1b4e:	e8 4d f4 ff ff       	callq  fa0 <random@plt>
    1b53:	48 89 c1             	mov    %rax,%rcx
    1b56:	48 ba 0b d7 a3 70 3d 	movabs $0xa3d70a3d70a3d70b,%rdx
    1b5d:	0a d7 a3 
    1b60:	48 f7 ea             	imul   %rdx
    1b63:	48 01 ca             	add    %rcx,%rdx
    1b66:	48 c1 fa 06          	sar    $0x6,%rdx
    1b6a:	48 89 c8             	mov    %rcx,%rax
    1b6d:	48 c1 f8 3f          	sar    $0x3f,%rax
    1b71:	48 29 c2             	sub    %rax,%rdx
    1b74:	48 8d 04 92          	lea    (%rdx,%rdx,4),%rax
    1b78:	48 8d 14 80          	lea    (%rax,%rax,4),%rdx
    1b7c:	48 8d 04 95 00 00 00 	lea    0x0(,%rdx,4),%rax
    1b83:	00 
    1b84:	48 29 c1             	sub    %rax,%rcx
    1b87:	4c 8d 24 0c          	lea    (%rsp,%rcx,1),%r12
    1b8b:	41 89 e8             	mov    %ebp,%r8d
    1b8e:	48 8d 0d 33 1a 00 00 	lea    0x1a33(%rip),%rcx        # 35c8 <_IO_stdin_used+0x358>
    1b95:	48 c7 c2 ff ff ff ff 	mov    $0xffffffffffffffff,%rdx
    1b9c:	be 01 00 00 00       	mov    $0x1,%esi
    1ba1:	4c 89 e7             	mov    %r12,%rdi
    1ba4:	b8 00 00 00 00       	mov    $0x0,%eax
    1ba9:	e8 b2 f4 ff ff       	callq  1060 <__sprintf_chk@plt>
    1bae:	ba 09 00 00 00       	mov    $0x9,%edx
    1bb3:	4c 89 e6             	mov    %r12,%rsi
    1bb6:	48 89 df             	mov    %rbx,%rdi
    1bb9:	e8 e2 f2 ff ff       	callq  ea0 <strncmp@plt>
    1bbe:	85 c0                	test   %eax,%eax
    1bc0:	0f 94 c0             	sete   %al
    1bc3:	48 8b 5c 24 78       	mov    0x78(%rsp),%rbx
    1bc8:	64 48 33 1c 25 28 00 	xor    %fs:0x28,%rbx
    1bcf:	00 00 
    1bd1:	75 0c                	jne    1bdf <hexmatch+0xae>
    1bd3:	0f b6 c0             	movzbl %al,%eax
    1bd6:	48 83 ec 80          	sub    $0xffffffffffffff80,%rsp
    1bda:	5b                   	pop    %rbx
    1bdb:	5d                   	pop    %rbp
    1bdc:	41 5c                	pop    %r12
    1bde:	c3                   	retq   
    1bdf:	e8 fc f2 ff ff       	callq  ee0 <__stack_chk_fail@plt>

0000000000001be4 <touch3>:
    1be4:	53                   	push   %rbx
    1be5:	48 89 fb             	mov    %rdi,%rbx
    1be8:	c7 05 ea 37 20 00 03 	movl   $0x3,0x2037ea(%rip)        # 2053dc <vlevel>
    1bef:	00 00 00 
    1bf2:	48 89 fe             	mov    %rdi,%rsi
    1bf5:	8b 3d e9 37 20 00    	mov    0x2037e9(%rip),%edi        # 2053e4 <cookie>
    1bfb:	e8 31 ff ff ff       	callq  1b31 <hexmatch>
    1c00:	85 c0                	test   %eax,%eax
    1c02:	74 2d                	je     1c31 <touch3+0x4d>
    1c04:	48 89 da             	mov    %rbx,%rdx
    1c07:	48 8d 35 12 1a 00 00 	lea    0x1a12(%rip),%rsi        # 3620 <_IO_stdin_used+0x3b0>
    1c0e:	bf 01 00 00 00       	mov    $0x1,%edi
    1c13:	b8 00 00 00 00       	mov    $0x0,%eax
    1c18:	e8 c3 f3 ff ff       	callq  fe0 <__printf_chk@plt>
    1c1d:	bf 03 00 00 00       	mov    $0x3,%edi
    1c22:	e8 91 04 00 00       	callq  20b8 <validate>
    1c27:	bf 00 00 00 00       	mov    $0x0,%edi
    1c2c:	e8 ff f3 ff ff       	callq  1030 <exit@plt>
    1c31:	48 89 da             	mov    %rbx,%rdx
    1c34:	48 8d 35 0d 1a 00 00 	lea    0x1a0d(%rip),%rsi        # 3648 <_IO_stdin_used+0x3d8>
    1c3b:	bf 01 00 00 00       	mov    $0x1,%edi
    1c40:	b8 00 00 00 00       	mov    $0x0,%eax
    1c45:	e8 96 f3 ff ff       	callq  fe0 <__printf_chk@plt>
    1c4a:	bf 03 00 00 00       	mov    $0x3,%edi
    1c4f:	e8 34 05 00 00       	callq  2188 <fail>
    1c54:	eb d1                	jmp    1c27 <touch3+0x43>

0000000000001c56 <test>:
    1c56:	48 83 ec 08          	sub    $0x8,%rsp
    1c5a:	b8 00 00 00 00       	mov    $0x0,%eax
    1c5f:	e8 25 fe ff ff       	callq  1a89 <getbuf>
    1c64:	89 c2                	mov    %eax,%edx
    1c66:	48 8d 35 03 1a 00 00 	lea    0x1a03(%rip),%rsi        # 3670 <_IO_stdin_used+0x400>
    1c6d:	bf 01 00 00 00       	mov    $0x1,%edi
    1c72:	b8 00 00 00 00       	mov    $0x0,%eax
    1c77:	e8 64 f3 ff ff       	callq  fe0 <__printf_chk@plt>
    1c7c:	48 83 c4 08          	add    $0x8,%rsp
    1c80:	c3                   	retq   

0000000000001c81 <start_farm>:
    1c81:	b8 01 00 00 00       	mov    $0x1,%eax
    1c86:	c3                   	retq   

0000000000001c87 <setval_395>:
    1c87:	c7 07 58 92 90 c3    	movl   $0xc3909258,(%rdi)
    1c8d:	c3                   	retq   

0000000000001c8e <getval_355>:
    1c8e:	b8 98 71 58 c3       	mov    $0xc3587198,%eax
    1c93:	c3                   	retq   

0000000000001c94 <getval_400>:
    1c94:	b8 40 89 c7 c3       	mov    $0xc3c78940,%eax
    1c99:	c3                   	retq   

0000000000001c9a <addval_447>:
    1c9a:	8d 87 48 89 c7 91    	lea    -0x6e3876b8(%rdi),%eax
    1ca0:	c3                   	retq   

0000000000001ca1 <addval_389>:
    1ca1:	8d 87 48 89 c7 c3    	lea    -0x3c3876b8(%rdi),%eax
    1ca7:	c3                   	retq   

0000000000001ca8 <addval_174>:
    1ca8:	8d 87 48 89 c7 c3    	lea    -0x3c3876b8(%rdi),%eax
    1cae:	c3                   	retq   

0000000000001caf <addval_181>:
    1caf:	8d 87 58 90 90 c7    	lea    -0x386f6fa8(%rdi),%eax
    1cb5:	c3                   	retq   

0000000000001cb6 <getval_269>:
    1cb6:	b8 79 2f 58 90       	mov    $0x90582f79,%eax
    1cbb:	c3                   	retq   

0000000000001cbc <mid_farm>:
    1cbc:	b8 01 00 00 00       	mov    $0x1,%eax
    1cc1:	c3                   	retq   

0000000000001cc2 <add_xy>:
    1cc2:	48 8d 04 37          	lea    (%rdi,%rsi,1),%rax
    1cc6:	c3                   	retq   

0000000000001cc7 <getval_452>:
    1cc7:	b8 99 d1 08 c0       	mov    $0xc008d199,%eax
    1ccc:	c3                   	retq   

0000000000001ccd <setval_383>:
    1ccd:	c7 07 8b c2 84 c0    	movl   $0xc084c28b,(%rdi)
    1cd3:	c3                   	retq   

0000000000001cd4 <setval_385>:
    1cd4:	c7 07 a9 ce c3 d3    	movl   $0xd3c3cea9,(%rdi)
    1cda:	c3                   	retq   

0000000000001cdb <getval_241>:
    1cdb:	b8 89 ce 84 d2       	mov    $0xd284ce89,%eax
    1ce0:	c3                   	retq   

0000000000001ce1 <getval_435>:
    1ce1:	b8 89 c2 20 d2       	mov    $0xd220c289,%eax
    1ce6:	c3                   	retq   

0000000000001ce7 <setval_393>:
    1ce7:	c7 07 48 89 e0 c2    	movl   $0xc2e08948,(%rdi)
    1ced:	c3                   	retq   

0000000000001cee <getval_418>:
    1cee:	b8 a9 d1 90 c3       	mov    $0xc390d1a9,%eax
    1cf3:	c3                   	retq   

0000000000001cf4 <setval_458>:
    1cf4:	c7 07 c9 ce 20 db    	movl   $0xdb20cec9,(%rdi)
    1cfa:	c3                   	retq   

0000000000001cfb <setval_160>:
    1cfb:	c7 07 89 ce 00 c0    	movl   $0xc000ce89,(%rdi)
    1d01:	c3                   	retq   

0000000000001d02 <addval_220>:
    1d02:	8d 87 89 d1 84 c0    	lea    -0x3f7b2e77(%rdi),%eax
    1d08:	c3                   	retq   

0000000000001d09 <getval_347>:
    1d09:	b8 8b c2 20 c0       	mov    $0xc020c28b,%eax
    1d0e:	c3                   	retq   

0000000000001d0f <getval_351>:
    1d0f:	b8 48 89 e0 90       	mov    $0x90e08948,%eax
    1d14:	c3                   	retq   

0000000000001d15 <getval_358>:
    1d15:	b8 89 ce 28 c0       	mov    $0xc028ce89,%eax
    1d1a:	c3                   	retq   

0000000000001d1b <setval_115>:
    1d1b:	c7 07 4a 89 e0 c3    	movl   $0xc3e0894a,(%rdi)
    1d21:	c3                   	retq   

0000000000001d22 <getval_242>:
    1d22:	b8 c9 d1 84 d2       	mov    $0xd284d1c9,%eax
    1d27:	c3                   	retq   

0000000000001d28 <getval_195>:
    1d28:	b8 48 8d e0 c3       	mov    $0xc3e08d48,%eax
    1d2d:	c3                   	retq   

0000000000001d2e <addval_191>:
    1d2e:	8d 87 a8 48 89 e0    	lea    -0x1f76b758(%rdi),%eax
    1d34:	c3                   	retq   

0000000000001d35 <addval_387>:
    1d35:	8d 87 89 ce 38 d2    	lea    -0x2dc73177(%rdi),%eax
    1d3b:	c3                   	retq   

0000000000001d3c <addval_404>:
    1d3c:	8d 87 a9 c2 90 90    	lea    -0x6f6f3d57(%rdi),%eax
    1d42:	c3                   	retq   

0000000000001d43 <getval_209>:
    1d43:	b8 a9 c2 08 d2       	mov    $0xd208c2a9,%eax
    1d48:	c3                   	retq   

0000000000001d49 <getval_325>:
    1d49:	b8 89 d1 84 c9       	mov    $0xc984d189,%eax
    1d4e:	c3                   	retq   

0000000000001d4f <getval_224>:
    1d4f:	b8 c9 d1 90 c3       	mov    $0xc390d1c9,%eax
    1d54:	c3                   	retq   

0000000000001d55 <setval_428>:
    1d55:	c7 07 08 89 e0 c3    	movl   $0xc3e08908,(%rdi)
    1d5b:	c3                   	retq   

0000000000001d5c <addval_103>:
    1d5c:	8d 87 86 89 ce c1    	lea    -0x3e31767a(%rdi),%eax
    1d62:	c3                   	retq   

0000000000001d63 <setval_331>:
    1d63:	c7 07 89 ce c4 d2    	movl   $0xd2c4ce89,(%rdi)
    1d69:	c3                   	retq   

0000000000001d6a <setval_157>:
    1d6a:	c7 07 48 89 e0 92    	movl   $0x92e08948,(%rdi)
    1d70:	c3                   	retq   

0000000000001d71 <addval_162>:
    1d71:	8d 87 89 c2 08 d2    	lea    -0x2df73d77(%rdi),%eax
    1d77:	c3                   	retq   

0000000000001d78 <setval_139>:
    1d78:	c7 07 58 89 e0 c3    	movl   $0xc3e08958,(%rdi)
    1d7e:	c3                   	retq   

0000000000001d7f <setval_382>:
    1d7f:	c7 07 81 d1 08 c0    	movl   $0xc008d181,(%rdi)
    1d85:	c3                   	retq   

0000000000001d86 <getval_190>:
    1d86:	b8 89 c2 c7 c1       	mov    $0xc1c7c289,%eax
    1d8b:	c3                   	retq   

0000000000001d8c <setval_259>:
    1d8c:	c7 07 89 c2 90 c1    	movl   $0xc190c289,(%rdi)
    1d92:	c3                   	retq   

0000000000001d93 <addval_492>:
    1d93:	8d 87 89 d1 18 db    	lea    -0x24e72e77(%rdi),%eax
    1d99:	c3                   	retq   

0000000000001d9a <end_farm>:
    1d9a:	b8 01 00 00 00       	mov    $0x1,%eax
    1d9f:	c3                   	retq   

0000000000001da0 <save_char>:
    1da0:	8b 05 5e 42 20 00    	mov    0x20425e(%rip),%eax        # 206004 <gets_cnt>
    1da6:	3d ff 03 00 00       	cmp    $0x3ff,%eax
    1dab:	7f 4a                	jg     1df7 <save_char+0x57>
    1dad:	89 f9                	mov    %edi,%ecx
    1daf:	c0 e9 04             	shr    $0x4,%cl
    1db2:	8d 14 40             	lea    (%rax,%rax,2),%edx
    1db5:	4c 8d 05 d4 1b 00 00 	lea    0x1bd4(%rip),%r8        # 3990 <trans_char>
    1dbc:	83 e1 0f             	and    $0xf,%ecx
    1dbf:	45 0f b6 0c 08       	movzbl (%r8,%rcx,1),%r9d
    1dc4:	48 8d 0d 35 36 20 00 	lea    0x203635(%rip),%rcx        # 205400 <gets_buf>
    1dcb:	48 63 f2             	movslq %edx,%rsi
    1dce:	44 88 0c 31          	mov    %r9b,(%rcx,%rsi,1)
    1dd2:	8d 72 01             	lea    0x1(%rdx),%esi
    1dd5:	83 e7 0f             	and    $0xf,%edi
    1dd8:	41 0f b6 3c 38       	movzbl (%r8,%rdi,1),%edi
    1ddd:	48 63 f6             	movslq %esi,%rsi
    1de0:	40 88 3c 31          	mov    %dil,(%rcx,%rsi,1)
    1de4:	83 c2 02             	add    $0x2,%edx
    1de7:	48 63 d2             	movslq %edx,%rdx
    1dea:	c6 04 11 20          	movb   $0x20,(%rcx,%rdx,1)
    1dee:	83 c0 01             	add    $0x1,%eax
    1df1:	89 05 0d 42 20 00    	mov    %eax,0x20420d(%rip)        # 206004 <gets_cnt>
    1df7:	f3 c3                	repz retq 

0000000000001df9 <save_term>:
    1df9:	8b 05 05 42 20 00    	mov    0x204205(%rip),%eax        # 206004 <gets_cnt>
    1dff:	8d 04 40             	lea    (%rax,%rax,2),%eax
    1e02:	48 98                	cltq   
    1e04:	48 8d 15 f5 35 20 00 	lea    0x2035f5(%rip),%rdx        # 205400 <gets_buf>
    1e0b:	c6 04 02 00          	movb   $0x0,(%rdx,%rax,1)
    1e0f:	c3                   	retq   

0000000000001e10 <check_fail>:
    1e10:	48 83 ec 08          	sub    $0x8,%rsp
    1e14:	0f be 15 ed 41 20 00 	movsbl 0x2041ed(%rip),%edx        # 206008 <target_prefix>
    1e1b:	4c 8d 05 de 35 20 00 	lea    0x2035de(%rip),%r8        # 205400 <gets_buf>
    1e22:	8b 0d b0 35 20 00    	mov    0x2035b0(%rip),%ecx        # 2053d8 <check_level>
    1e28:	48 8d 35 64 18 00 00 	lea    0x1864(%rip),%rsi        # 3693 <_IO_stdin_used+0x423>
    1e2f:	bf 01 00 00 00       	mov    $0x1,%edi
    1e34:	b8 00 00 00 00       	mov    $0x0,%eax
    1e39:	e8 a2 f1 ff ff       	callq  fe0 <__printf_chk@plt>
    1e3e:	bf 01 00 00 00       	mov    $0x1,%edi
    1e43:	e8 e8 f1 ff ff       	callq  1030 <exit@plt>

0000000000001e48 <Gets>:
    1e48:	41 54                	push   %r12
    1e4a:	55                   	push   %rbp
    1e4b:	53                   	push   %rbx
    1e4c:	49 89 fc             	mov    %rdi,%r12
    1e4f:	c7 05 ab 41 20 00 00 	movl   $0x0,0x2041ab(%rip)        # 206004 <gets_cnt>
    1e56:	00 00 00 
    1e59:	48 89 fb             	mov    %rdi,%rbx
    1e5c:	eb 11                	jmp    1e6f <Gets+0x27>
    1e5e:	48 8d 6b 01          	lea    0x1(%rbx),%rbp
    1e62:	88 03                	mov    %al,(%rbx)
    1e64:	0f b6 f8             	movzbl %al,%edi
    1e67:	e8 34 ff ff ff       	callq  1da0 <save_char>
    1e6c:	48 89 eb             	mov    %rbp,%rbx
    1e6f:	48 8b 3d 5a 35 20 00 	mov    0x20355a(%rip),%rdi        # 2053d0 <infile>
    1e76:	e8 35 f1 ff ff       	callq  fb0 <_IO_getc@plt>
    1e7b:	83 f8 ff             	cmp    $0xffffffff,%eax
    1e7e:	74 05                	je     1e85 <Gets+0x3d>
    1e80:	83 f8 0a             	cmp    $0xa,%eax
    1e83:	75 d9                	jne    1e5e <Gets+0x16>
    1e85:	c6 03 00             	movb   $0x0,(%rbx)
    1e88:	b8 00 00 00 00       	mov    $0x0,%eax
    1e8d:	e8 67 ff ff ff       	callq  1df9 <save_term>
    1e92:	4c 89 e0             	mov    %r12,%rax
    1e95:	5b                   	pop    %rbx
    1e96:	5d                   	pop    %rbp
    1e97:	41 5c                	pop    %r12
    1e99:	c3                   	retq   

0000000000001e9a <notify_server>:
    1e9a:	55                   	push   %rbp
    1e9b:	53                   	push   %rbx
    1e9c:	48 81 ec 18 40 00 00 	sub    $0x4018,%rsp
    1ea3:	64 48 8b 04 25 28 00 	mov    %fs:0x28,%rax
    1eaa:	00 00 
    1eac:	48 89 84 24 08 40 00 	mov    %rax,0x4008(%rsp)
    1eb3:	00 
    1eb4:	31 c0                	xor    %eax,%eax
    1eb6:	83 3d 2b 35 20 00 00 	cmpl   $0x0,0x20352b(%rip)        # 2053e8 <is_checker>
    1ebd:	0f 85 d2 00 00 00    	jne    1f95 <notify_server+0xfb>
    1ec3:	89 fb                	mov    %edi,%ebx
    1ec5:	8b 05 39 41 20 00    	mov    0x204139(%rip),%eax        # 206004 <gets_cnt>
    1ecb:	83 c0 64             	add    $0x64,%eax
    1ece:	3d 00 20 00 00       	cmp    $0x2000,%eax
    1ed3:	0f 8f dd 00 00 00    	jg     1fb6 <notify_server+0x11c>
    1ed9:	0f be 05 28 41 20 00 	movsbl 0x204128(%rip),%eax        # 206008 <target_prefix>
    1ee0:	83 3d 81 34 20 00 00 	cmpl   $0x0,0x203481(%rip)        # 205368 <notify>
    1ee7:	0f 84 e9 00 00 00    	je     1fd6 <notify_server+0x13c>
    1eed:	8b 15 ed 34 20 00    	mov    0x2034ed(%rip),%edx        # 2053e0 <authkey>
    1ef3:	85 db                	test   %ebx,%ebx
    1ef5:	0f 84 e5 00 00 00    	je     1fe0 <notify_server+0x146>
    1efb:	48 8d 2d a7 17 00 00 	lea    0x17a7(%rip),%rbp        # 36a9 <_IO_stdin_used+0x439>
    1f02:	48 89 e7             	mov    %rsp,%rdi
    1f05:	48 8d 0d f4 34 20 00 	lea    0x2034f4(%rip),%rcx        # 205400 <gets_buf>
    1f0c:	51                   	push   %rcx
    1f0d:	56                   	push   %rsi
    1f0e:	50                   	push   %rax
    1f0f:	52                   	push   %rdx
    1f10:	49 89 e9             	mov    %rbp,%r9
    1f13:	44 8b 05 f6 30 20 00 	mov    0x2030f6(%rip),%r8d        # 205010 <target_id>
    1f1a:	48 8d 0d 92 17 00 00 	lea    0x1792(%rip),%rcx        # 36b3 <_IO_stdin_used+0x443>
    1f21:	ba 00 20 00 00       	mov    $0x2000,%edx
    1f26:	be 01 00 00 00       	mov    $0x1,%esi
    1f2b:	b8 00 00 00 00       	mov    $0x0,%eax
    1f30:	e8 2b f1 ff ff       	callq  1060 <__sprintf_chk@plt>
    1f35:	48 83 c4 20          	add    $0x20,%rsp
    1f39:	83 3d 28 34 20 00 00 	cmpl   $0x0,0x203428(%rip)        # 205368 <notify>
    1f40:	0f 84 df 00 00 00    	je     2025 <notify_server+0x18b>
    1f46:	85 db                	test   %ebx,%ebx
    1f48:	0f 84 c6 00 00 00    	je     2014 <notify_server+0x17a>
    1f4e:	48 89 e1             	mov    %rsp,%rcx
    1f51:	4c 8d 8c 24 00 20 00 	lea    0x2000(%rsp),%r9
    1f58:	00 
    1f59:	41 b8 00 00 00 00    	mov    $0x0,%r8d
    1f5f:	48 8b 15 c2 30 20 00 	mov    0x2030c2(%rip),%rdx        # 205028 <lab>
    1f66:	48 8b 35 c3 30 20 00 	mov    0x2030c3(%rip),%rsi        # 205030 <course>
    1f6d:	48 8b 3d ac 30 20 00 	mov    0x2030ac(%rip),%rdi        # 205020 <user_id>
    1f74:	e8 af 11 00 00       	callq  3128 <driver_post>
    1f79:	85 c0                	test   %eax,%eax
    1f7b:	78 6f                	js     1fec <notify_server+0x152>
    1f7d:	48 8d 3d 74 18 00 00 	lea    0x1874(%rip),%rdi        # 37f8 <_IO_stdin_used+0x588>
    1f84:	e8 37 ef ff ff       	callq  ec0 <puts@plt>
    1f89:	48 8d 3d 4b 17 00 00 	lea    0x174b(%rip),%rdi        # 36db <_IO_stdin_used+0x46b>
    1f90:	e8 2b ef ff ff       	callq  ec0 <puts@plt>
    1f95:	48 8b 84 24 08 40 00 	mov    0x4008(%rsp),%rax
    1f9c:	00 
    1f9d:	64 48 33 04 25 28 00 	xor    %fs:0x28,%rax
    1fa4:	00 00 
    1fa6:	0f 85 07 01 00 00    	jne    20b3 <notify_server+0x219>
    1fac:	48 81 c4 18 40 00 00 	add    $0x4018,%rsp
    1fb3:	5b                   	pop    %rbx
    1fb4:	5d                   	pop    %rbp
    1fb5:	c3                   	retq   
    1fb6:	48 8d 35 0b 18 00 00 	lea    0x180b(%rip),%rsi        # 37c8 <_IO_stdin_used+0x558>
    1fbd:	bf 01 00 00 00       	mov    $0x1,%edi
    1fc2:	b8 00 00 00 00       	mov    $0x0,%eax
    1fc7:	e8 14 f0 ff ff       	callq  fe0 <__printf_chk@plt>
    1fcc:	bf 01 00 00 00       	mov    $0x1,%edi
    1fd1:	e8 5a f0 ff ff       	callq  1030 <exit@plt>
    1fd6:	ba ff ff ff ff       	mov    $0xffffffff,%edx
    1fdb:	e9 13 ff ff ff       	jmpq   1ef3 <notify_server+0x59>
    1fe0:	48 8d 2d c7 16 00 00 	lea    0x16c7(%rip),%rbp        # 36ae <_IO_stdin_used+0x43e>
    1fe7:	e9 16 ff ff ff       	jmpq   1f02 <notify_server+0x68>
    1fec:	48 8d 94 24 00 20 00 	lea    0x2000(%rsp),%rdx
    1ff3:	00 
    1ff4:	48 8d 35 d4 16 00 00 	lea    0x16d4(%rip),%rsi        # 36cf <_IO_stdin_used+0x45f>
    1ffb:	bf 01 00 00 00       	mov    $0x1,%edi
    2000:	b8 00 00 00 00       	mov    $0x0,%eax
    2005:	e8 d6 ef ff ff       	callq  fe0 <__printf_chk@plt>
    200a:	bf 01 00 00 00       	mov    $0x1,%edi
    200f:	e8 1c f0 ff ff       	callq  1030 <exit@plt>
    2014:	48 8d 3d ca 16 00 00 	lea    0x16ca(%rip),%rdi        # 36e5 <_IO_stdin_used+0x475>
    201b:	e8 a0 ee ff ff       	callq  ec0 <puts@plt>
    2020:	e9 70 ff ff ff       	jmpq   1f95 <notify_server+0xfb>
    2025:	48 89 ea             	mov    %rbp,%rdx
    2028:	48 8d 35 01 18 00 00 	lea    0x1801(%rip),%rsi        # 3830 <_IO_stdin_used+0x5c0>
    202f:	bf 01 00 00 00       	mov    $0x1,%edi
    2034:	b8 00 00 00 00       	mov    $0x0,%eax
    2039:	e8 a2 ef ff ff       	callq  fe0 <__printf_chk@plt>
    203e:	48 8b 15 db 2f 20 00 	mov    0x202fdb(%rip),%rdx        # 205020 <user_id>
    2045:	48 8d 35 a0 16 00 00 	lea    0x16a0(%rip),%rsi        # 36ec <_IO_stdin_used+0x47c>
    204c:	bf 01 00 00 00       	mov    $0x1,%edi
    2051:	b8 00 00 00 00       	mov    $0x0,%eax
    2056:	e8 85 ef ff ff       	callq  fe0 <__printf_chk@plt>
    205b:	48 8b 15 ce 2f 20 00 	mov    0x202fce(%rip),%rdx        # 205030 <course>
    2062:	48 8d 35 90 16 00 00 	lea    0x1690(%rip),%rsi        # 36f9 <_IO_stdin_used+0x489>
    2069:	bf 01 00 00 00       	mov    $0x1,%edi
    206e:	b8 00 00 00 00       	mov    $0x0,%eax
    2073:	e8 68 ef ff ff       	callq  fe0 <__printf_chk@plt>
    2078:	48 8b 15 a9 2f 20 00 	mov    0x202fa9(%rip),%rdx        # 205028 <lab>
    207f:	48 8d 35 7f 16 00 00 	lea    0x167f(%rip),%rsi        # 3705 <_IO_stdin_used+0x495>
    2086:	bf 01 00 00 00       	mov    $0x1,%edi
    208b:	b8 00 00 00 00       	mov    $0x0,%eax
    2090:	e8 4b ef ff ff       	callq  fe0 <__printf_chk@plt>
    2095:	48 89 e2             	mov    %rsp,%rdx
    2098:	48 8d 35 6f 16 00 00 	lea    0x166f(%rip),%rsi        # 370e <_IO_stdin_used+0x49e>
    209f:	bf 01 00 00 00       	mov    $0x1,%edi
    20a4:	b8 00 00 00 00       	mov    $0x0,%eax
    20a9:	e8 32 ef ff ff       	callq  fe0 <__printf_chk@plt>
    20ae:	e9 e2 fe ff ff       	jmpq   1f95 <notify_server+0xfb>
    20b3:	e8 28 ee ff ff       	callq  ee0 <__stack_chk_fail@plt>

00000000000020b8 <validate>:
    20b8:	53                   	push   %rbx
    20b9:	89 fb                	mov    %edi,%ebx
    20bb:	83 3d 26 33 20 00 00 	cmpl   $0x0,0x203326(%rip)        # 2053e8 <is_checker>
    20c2:	74 72                	je     2136 <validate+0x7e>
    20c4:	39 3d 12 33 20 00    	cmp    %edi,0x203312(%rip)        # 2053dc <vlevel>
    20ca:	75 32                	jne    20fe <validate+0x46>
    20cc:	8b 15 06 33 20 00    	mov    0x203306(%rip),%edx        # 2053d8 <check_level>
    20d2:	39 fa                	cmp    %edi,%edx
    20d4:	75 3e                	jne    2114 <validate+0x5c>
    20d6:	0f be 15 2b 3f 20 00 	movsbl 0x203f2b(%rip),%edx        # 206008 <target_prefix>
    20dd:	4c 8d 05 1c 33 20 00 	lea    0x20331c(%rip),%r8        # 205400 <gets_buf>
    20e4:	89 f9                	mov    %edi,%ecx
    20e6:	48 8d 35 4b 16 00 00 	lea    0x164b(%rip),%rsi        # 3738 <_IO_stdin_used+0x4c8>
    20ed:	bf 01 00 00 00       	mov    $0x1,%edi
    20f2:	b8 00 00 00 00       	mov    $0x0,%eax
    20f7:	e8 e4 ee ff ff       	callq  fe0 <__printf_chk@plt>
    20fc:	5b                   	pop    %rbx
    20fd:	c3                   	retq   
    20fe:	48 8d 3d 15 16 00 00 	lea    0x1615(%rip),%rdi        # 371a <_IO_stdin_used+0x4aa>
    2105:	e8 b6 ed ff ff       	callq  ec0 <puts@plt>
    210a:	b8 00 00 00 00       	mov    $0x0,%eax
    210f:	e8 fc fc ff ff       	callq  1e10 <check_fail>
    2114:	89 f9                	mov    %edi,%ecx
    2116:	48 8d 35 3b 17 00 00 	lea    0x173b(%rip),%rsi        # 3858 <_IO_stdin_used+0x5e8>
    211d:	bf 01 00 00 00       	mov    $0x1,%edi
    2122:	b8 00 00 00 00       	mov    $0x0,%eax
    2127:	e8 b4 ee ff ff       	callq  fe0 <__printf_chk@plt>
    212c:	b8 00 00 00 00       	mov    $0x0,%eax
    2131:	e8 da fc ff ff       	callq  1e10 <check_fail>
    2136:	39 3d a0 32 20 00    	cmp    %edi,0x2032a0(%rip)        # 2053dc <vlevel>
    213c:	74 1a                	je     2158 <validate+0xa0>
    213e:	48 8d 3d d5 15 00 00 	lea    0x15d5(%rip),%rdi        # 371a <_IO_stdin_used+0x4aa>
    2145:	e8 76 ed ff ff       	callq  ec0 <puts@plt>
    214a:	89 de                	mov    %ebx,%esi
    214c:	bf 00 00 00 00       	mov    $0x0,%edi
    2151:	e8 44 fd ff ff       	callq  1e9a <notify_server>
    2156:	eb a4                	jmp    20fc <validate+0x44>
    2158:	0f be 0d a9 3e 20 00 	movsbl 0x203ea9(%rip),%ecx        # 206008 <target_prefix>
    215f:	89 fa                	mov    %edi,%edx
    2161:	48 8d 35 18 17 00 00 	lea    0x1718(%rip),%rsi        # 3880 <_IO_stdin_used+0x610>
    2168:	bf 01 00 00 00       	mov    $0x1,%edi
    216d:	b8 00 00 00 00       	mov    $0x0,%eax
    2172:	e8 69 ee ff ff       	callq  fe0 <__printf_chk@plt>
    2177:	89 de                	mov    %ebx,%esi
    2179:	bf 01 00 00 00       	mov    $0x1,%edi
    217e:	e8 17 fd ff ff       	callq  1e9a <notify_server>
    2183:	e9 74 ff ff ff       	jmpq   20fc <validate+0x44>

0000000000002188 <fail>:
    2188:	48 83 ec 08          	sub    $0x8,%rsp
    218c:	83 3d 55 32 20 00 00 	cmpl   $0x0,0x203255(%rip)        # 2053e8 <is_checker>
    2193:	75 11                	jne    21a6 <fail+0x1e>
    2195:	89 fe                	mov    %edi,%esi
    2197:	bf 00 00 00 00       	mov    $0x0,%edi
    219c:	e8 f9 fc ff ff       	callq  1e9a <notify_server>
    21a1:	48 83 c4 08          	add    $0x8,%rsp
    21a5:	c3                   	retq   
    21a6:	b8 00 00 00 00       	mov    $0x0,%eax
    21ab:	e8 60 fc ff ff       	callq  1e10 <check_fail>

00000000000021b0 <bushandler>:
    21b0:	48 83 ec 08          	sub    $0x8,%rsp
    21b4:	83 3d 2d 32 20 00 00 	cmpl   $0x0,0x20322d(%rip)        # 2053e8 <is_checker>
    21bb:	74 16                	je     21d3 <bushandler+0x23>
    21bd:	48 8d 3d 89 15 00 00 	lea    0x1589(%rip),%rdi        # 374d <_IO_stdin_used+0x4dd>
    21c4:	e8 f7 ec ff ff       	callq  ec0 <puts@plt>
    21c9:	b8 00 00 00 00       	mov    $0x0,%eax
    21ce:	e8 3d fc ff ff       	callq  1e10 <check_fail>
    21d3:	48 8d 3d de 16 00 00 	lea    0x16de(%rip),%rdi        # 38b8 <_IO_stdin_used+0x648>
    21da:	e8 e1 ec ff ff       	callq  ec0 <puts@plt>
    21df:	48 8d 3d 71 15 00 00 	lea    0x1571(%rip),%rdi        # 3757 <_IO_stdin_used+0x4e7>
    21e6:	e8 d5 ec ff ff       	callq  ec0 <puts@plt>
    21eb:	be 00 00 00 00       	mov    $0x0,%esi
    21f0:	bf 00 00 00 00       	mov    $0x0,%edi
    21f5:	e8 a0 fc ff ff       	callq  1e9a <notify_server>
    21fa:	bf 01 00 00 00       	mov    $0x1,%edi
    21ff:	e8 2c ee ff ff       	callq  1030 <exit@plt>

0000000000002204 <seghandler>:
    2204:	48 83 ec 08          	sub    $0x8,%rsp
    2208:	83 3d d9 31 20 00 00 	cmpl   $0x0,0x2031d9(%rip)        # 2053e8 <is_checker>
    220f:	74 16                	je     2227 <seghandler+0x23>
    2211:	48 8d 3d 55 15 00 00 	lea    0x1555(%rip),%rdi        # 376d <_IO_stdin_used+0x4fd>
    2218:	e8 a3 ec ff ff       	callq  ec0 <puts@plt>
    221d:	b8 00 00 00 00       	mov    $0x0,%eax
    2222:	e8 e9 fb ff ff       	callq  1e10 <check_fail>
    2227:	48 8d 3d aa 16 00 00 	lea    0x16aa(%rip),%rdi        # 38d8 <_IO_stdin_used+0x668>
    222e:	e8 8d ec ff ff       	callq  ec0 <puts@plt>
    2233:	48 8d 3d 1d 15 00 00 	lea    0x151d(%rip),%rdi        # 3757 <_IO_stdin_used+0x4e7>
    223a:	e8 81 ec ff ff       	callq  ec0 <puts@plt>
    223f:	be 00 00 00 00       	mov    $0x0,%esi
    2244:	bf 00 00 00 00       	mov    $0x0,%edi
    2249:	e8 4c fc ff ff       	callq  1e9a <notify_server>
    224e:	bf 01 00 00 00       	mov    $0x1,%edi
    2253:	e8 d8 ed ff ff       	callq  1030 <exit@plt>

0000000000002258 <illegalhandler>:
    2258:	48 83 ec 08          	sub    $0x8,%rsp
    225c:	83 3d 85 31 20 00 00 	cmpl   $0x0,0x203185(%rip)        # 2053e8 <is_checker>
    2263:	74 16                	je     227b <illegalhandler+0x23>
    2265:	48 8d 3d 14 15 00 00 	lea    0x1514(%rip),%rdi        # 3780 <_IO_stdin_used+0x510>
    226c:	e8 4f ec ff ff       	callq  ec0 <puts@plt>
    2271:	b8 00 00 00 00       	mov    $0x0,%eax
    2276:	e8 95 fb ff ff       	callq  1e10 <check_fail>
    227b:	48 8d 3d 7e 16 00 00 	lea    0x167e(%rip),%rdi        # 3900 <_IO_stdin_used+0x690>
    2282:	e8 39 ec ff ff       	callq  ec0 <puts@plt>
    2287:	48 8d 3d c9 14 00 00 	lea    0x14c9(%rip),%rdi        # 3757 <_IO_stdin_used+0x4e7>
    228e:	e8 2d ec ff ff       	callq  ec0 <puts@plt>
    2293:	be 00 00 00 00       	mov    $0x0,%esi
    2298:	bf 00 00 00 00       	mov    $0x0,%edi
    229d:	e8 f8 fb ff ff       	callq  1e9a <notify_server>
    22a2:	bf 01 00 00 00       	mov    $0x1,%edi
    22a7:	e8 84 ed ff ff       	callq  1030 <exit@plt>

00000000000022ac <sigalrmhandler>:
    22ac:	48 83 ec 08          	sub    $0x8,%rsp
    22b0:	83 3d 31 31 20 00 00 	cmpl   $0x0,0x203131(%rip)        # 2053e8 <is_checker>
    22b7:	74 16                	je     22cf <sigalrmhandler+0x23>
    22b9:	48 8d 3d d4 14 00 00 	lea    0x14d4(%rip),%rdi        # 3794 <_IO_stdin_used+0x524>
    22c0:	e8 fb eb ff ff       	callq  ec0 <puts@plt>
    22c5:	b8 00 00 00 00       	mov    $0x0,%eax
    22ca:	e8 41 fb ff ff       	callq  1e10 <check_fail>
    22cf:	ba 05 00 00 00       	mov    $0x5,%edx
    22d4:	48 8d 35 55 16 00 00 	lea    0x1655(%rip),%rsi        # 3930 <_IO_stdin_used+0x6c0>
    22db:	bf 01 00 00 00       	mov    $0x1,%edi
    22e0:	b8 00 00 00 00       	mov    $0x0,%eax
    22e5:	e8 f6 ec ff ff       	callq  fe0 <__printf_chk@plt>
    22ea:	be 00 00 00 00       	mov    $0x0,%esi
    22ef:	bf 00 00 00 00       	mov    $0x0,%edi
    22f4:	e8 a1 fb ff ff       	callq  1e9a <notify_server>
    22f9:	bf 01 00 00 00       	mov    $0x1,%edi
    22fe:	e8 2d ed ff ff       	callq  1030 <exit@plt>

0000000000002303 <launch>:
    2303:	55                   	push   %rbp
    2304:	48 89 e5             	mov    %rsp,%rbp
    2307:	48 83 ec 10          	sub    $0x10,%rsp
    230b:	48 89 fa             	mov    %rdi,%rdx
    230e:	64 48 8b 04 25 28 00 	mov    %fs:0x28,%rax
    2315:	00 00 
    2317:	48 89 45 f8          	mov    %rax,-0x8(%rbp)
    231b:	31 c0                	xor    %eax,%eax
    231d:	48 8d 47 1e          	lea    0x1e(%rdi),%rax
    2321:	48 83 e0 f0          	and    $0xfffffffffffffff0,%rax
    2325:	48 29 c4             	sub    %rax,%rsp
    2328:	48 8d 7c 24 0f       	lea    0xf(%rsp),%rdi
    232d:	48 83 e7 f0          	and    $0xfffffffffffffff0,%rdi
    2331:	be f4 00 00 00       	mov    $0xf4,%esi
    2336:	e8 c5 eb ff ff       	callq  f00 <memset@plt>
    233b:	48 8b 05 3e 30 20 00 	mov    0x20303e(%rip),%rax        # 205380 <stdin@@GLIBC_2.2.5>
    2342:	48 39 05 87 30 20 00 	cmp    %rax,0x203087(%rip)        # 2053d0 <infile>
    2349:	74 3a                	je     2385 <launch+0x82>
    234b:	c7 05 87 30 20 00 00 	movl   $0x0,0x203087(%rip)        # 2053dc <vlevel>
    2352:	00 00 00 
    2355:	b8 00 00 00 00       	mov    $0x0,%eax
    235a:	e8 f7 f8 ff ff       	callq  1c56 <test>
    235f:	83 3d 82 30 20 00 00 	cmpl   $0x0,0x203082(%rip)        # 2053e8 <is_checker>
    2366:	75 35                	jne    239d <launch+0x9a>
    2368:	48 8d 3d 45 14 00 00 	lea    0x1445(%rip),%rdi        # 37b4 <_IO_stdin_used+0x544>
    236f:	e8 4c eb ff ff       	callq  ec0 <puts@plt>
    2374:	48 8b 45 f8          	mov    -0x8(%rbp),%rax
    2378:	64 48 33 04 25 28 00 	xor    %fs:0x28,%rax
    237f:	00 00 
    2381:	75 30                	jne    23b3 <launch+0xb0>
    2383:	c9                   	leaveq 
    2384:	c3                   	retq   
    2385:	48 8d 35 10 14 00 00 	lea    0x1410(%rip),%rsi        # 379c <_IO_stdin_used+0x52c>
    238c:	bf 01 00 00 00       	mov    $0x1,%edi
    2391:	b8 00 00 00 00       	mov    $0x0,%eax
    2396:	e8 45 ec ff ff       	callq  fe0 <__printf_chk@plt>
    239b:	eb ae                	jmp    234b <launch+0x48>
    239d:	48 8d 3d 05 14 00 00 	lea    0x1405(%rip),%rdi        # 37a9 <_IO_stdin_used+0x539>
    23a4:	e8 17 eb ff ff       	callq  ec0 <puts@plt>
    23a9:	b8 00 00 00 00       	mov    $0x0,%eax
    23ae:	e8 5d fa ff ff       	callq  1e10 <check_fail>
    23b3:	e8 28 eb ff ff       	callq  ee0 <__stack_chk_fail@plt>

00000000000023b8 <stable_launch>:
    23b8:	53                   	push   %rbx
    23b9:	48 89 3d 08 30 20 00 	mov    %rdi,0x203008(%rip)        # 2053c8 <global_offset>
    23c0:	41 b9 00 00 00 00    	mov    $0x0,%r9d
    23c6:	41 b8 00 00 00 00    	mov    $0x0,%r8d
    23cc:	b9 32 01 00 00       	mov    $0x132,%ecx
    23d1:	ba 07 00 00 00       	mov    $0x7,%edx
    23d6:	be 00 00 10 00       	mov    $0x100000,%esi
    23db:	bf 00 60 58 55       	mov    $0x55586000,%edi
    23e0:	e8 0b eb ff ff       	callq  ef0 <mmap@plt>
    23e5:	48 89 c3             	mov    %rax,%rbx
    23e8:	48 3d 00 60 58 55    	cmp    $0x55586000,%rax
    23ee:	75 43                	jne    2433 <stable_launch+0x7b>
    23f0:	48 8d 90 f8 ff 0f 00 	lea    0xffff8(%rax),%rdx
    23f7:	48 89 15 12 3c 20 00 	mov    %rdx,0x203c12(%rip)        # 206010 <stack_top>
    23fe:	48 89 e0             	mov    %rsp,%rax
    2401:	48 89 d4             	mov    %rdx,%rsp
    2404:	48 89 c2             	mov    %rax,%rdx
    2407:	48 89 15 b2 2f 20 00 	mov    %rdx,0x202fb2(%rip)        # 2053c0 <global_save_stack>
    240e:	48 8b 3d b3 2f 20 00 	mov    0x202fb3(%rip),%rdi        # 2053c8 <global_offset>
    2415:	e8 e9 fe ff ff       	callq  2303 <launch>
    241a:	48 8b 05 9f 2f 20 00 	mov    0x202f9f(%rip),%rax        # 2053c0 <global_save_stack>
    2421:	48 89 c4             	mov    %rax,%rsp
    2424:	be 00 00 10 00       	mov    $0x100000,%esi
    2429:	48 89 df             	mov    %rbx,%rdi
    242c:	e8 9f eb ff ff       	callq  fd0 <munmap@plt>
    2431:	5b                   	pop    %rbx
    2432:	c3                   	retq   
    2433:	be 00 00 10 00       	mov    $0x100000,%esi
    2438:	48 89 c7             	mov    %rax,%rdi
    243b:	e8 90 eb ff ff       	callq  fd0 <munmap@plt>
    2440:	b9 00 60 58 55       	mov    $0x55586000,%ecx
    2445:	48 8d 15 1c 15 00 00 	lea    0x151c(%rip),%rdx        # 3968 <_IO_stdin_used+0x6f8>
    244c:	be 01 00 00 00       	mov    $0x1,%esi
    2451:	48 8b 3d 48 2f 20 00 	mov    0x202f48(%rip),%rdi        # 2053a0 <stderr@@GLIBC_2.2.5>
    2458:	b8 00 00 00 00       	mov    $0x0,%eax
    245d:	e8 ee eb ff ff       	callq  1050 <__fprintf_chk@plt>
    2462:	bf 01 00 00 00       	mov    $0x1,%edi
    2467:	e8 c4 eb ff ff       	callq  1030 <exit@plt>

000000000000246c <rio_readinitb>:
    246c:	89 37                	mov    %esi,(%rdi)
    246e:	c7 47 04 00 00 00 00 	movl   $0x0,0x4(%rdi)
    2475:	48 8d 47 10          	lea    0x10(%rdi),%rax
    2479:	48 89 47 08          	mov    %rax,0x8(%rdi)
    247d:	c3                   	retq   

000000000000247e <sigalrm_handler>:
    247e:	48 83 ec 08          	sub    $0x8,%rsp
    2482:	b9 00 00 00 00       	mov    $0x0,%ecx
    2487:	48 8d 15 12 15 00 00 	lea    0x1512(%rip),%rdx        # 39a0 <trans_char+0x10>
    248e:	be 01 00 00 00       	mov    $0x1,%esi
    2493:	48 8b 3d 06 2f 20 00 	mov    0x202f06(%rip),%rdi        # 2053a0 <stderr@@GLIBC_2.2.5>
    249a:	b8 00 00 00 00       	mov    $0x0,%eax
    249f:	e8 ac eb ff ff       	callq  1050 <__fprintf_chk@plt>
    24a4:	bf 01 00 00 00       	mov    $0x1,%edi
    24a9:	e8 82 eb ff ff       	callq  1030 <exit@plt>

00000000000024ae <rio_writen>:
    24ae:	41 55                	push   %r13
    24b0:	41 54                	push   %r12
    24b2:	55                   	push   %rbp
    24b3:	53                   	push   %rbx
    24b4:	48 83 ec 08          	sub    $0x8,%rsp
    24b8:	41 89 fc             	mov    %edi,%r12d
    24bb:	48 89 f5             	mov    %rsi,%rbp
    24be:	49 89 d5             	mov    %rdx,%r13
    24c1:	48 89 d3             	mov    %rdx,%rbx
    24c4:	eb 06                	jmp    24cc <rio_writen+0x1e>
    24c6:	48 29 c3             	sub    %rax,%rbx
    24c9:	48 01 c5             	add    %rax,%rbp
    24cc:	48 85 db             	test   %rbx,%rbx
    24cf:	74 24                	je     24f5 <rio_writen+0x47>
    24d1:	48 89 da             	mov    %rbx,%rdx
    24d4:	48 89 ee             	mov    %rbp,%rsi
    24d7:	44 89 e7             	mov    %r12d,%edi
    24da:	e8 f1 e9 ff ff       	callq  ed0 <write@plt>
    24df:	48 85 c0             	test   %rax,%rax
    24e2:	7f e2                	jg     24c6 <rio_writen+0x18>
    24e4:	e8 97 e9 ff ff       	callq  e80 <__errno_location@plt>
    24e9:	83 38 04             	cmpl   $0x4,(%rax)
    24ec:	75 15                	jne    2503 <rio_writen+0x55>
    24ee:	b8 00 00 00 00       	mov    $0x0,%eax
    24f3:	eb d1                	jmp    24c6 <rio_writen+0x18>
    24f5:	4c 89 e8             	mov    %r13,%rax
    24f8:	48 83 c4 08          	add    $0x8,%rsp
    24fc:	5b                   	pop    %rbx
    24fd:	5d                   	pop    %rbp
    24fe:	41 5c                	pop    %r12
    2500:	41 5d                	pop    %r13
    2502:	c3                   	retq   
    2503:	48 c7 c0 ff ff ff ff 	mov    $0xffffffffffffffff,%rax
    250a:	eb ec                	jmp    24f8 <rio_writen+0x4a>

000000000000250c <rio_read>:
    250c:	41 55                	push   %r13
    250e:	41 54                	push   %r12
    2510:	55                   	push   %rbp
    2511:	53                   	push   %rbx
    2512:	48 83 ec 08          	sub    $0x8,%rsp
    2516:	48 89 fb             	mov    %rdi,%rbx
    2519:	49 89 f5             	mov    %rsi,%r13
    251c:	49 89 d4             	mov    %rdx,%r12
    251f:	eb 0a                	jmp    252b <rio_read+0x1f>
    2521:	e8 5a e9 ff ff       	callq  e80 <__errno_location@plt>
    2526:	83 38 04             	cmpl   $0x4,(%rax)
    2529:	75 5c                	jne    2587 <rio_read+0x7b>
    252b:	8b 6b 04             	mov    0x4(%rbx),%ebp
    252e:	85 ed                	test   %ebp,%ebp
    2530:	7f 24                	jg     2556 <rio_read+0x4a>
    2532:	48 8d 6b 10          	lea    0x10(%rbx),%rbp
    2536:	8b 3b                	mov    (%rbx),%edi
    2538:	ba 00 20 00 00       	mov    $0x2000,%edx
    253d:	48 89 ee             	mov    %rbp,%rsi
    2540:	e8 eb e9 ff ff       	callq  f30 <read@plt>
    2545:	89 43 04             	mov    %eax,0x4(%rbx)
    2548:	85 c0                	test   %eax,%eax
    254a:	78 d5                	js     2521 <rio_read+0x15>
    254c:	85 c0                	test   %eax,%eax
    254e:	74 40                	je     2590 <rio_read+0x84>
    2550:	48 89 6b 08          	mov    %rbp,0x8(%rbx)
    2554:	eb d5                	jmp    252b <rio_read+0x1f>
    2556:	89 e8                	mov    %ebp,%eax
    2558:	4c 39 e0             	cmp    %r12,%rax
    255b:	72 03                	jb     2560 <rio_read+0x54>
    255d:	44 89 e5             	mov    %r12d,%ebp
    2560:	4c 63 e5             	movslq %ebp,%r12
    2563:	48 8b 73 08          	mov    0x8(%rbx),%rsi
    2567:	4c 89 e2             	mov    %r12,%rdx
    256a:	4c 89 ef             	mov    %r13,%rdi
    256d:	e8 0e ea ff ff       	callq  f80 <memcpy@plt>
    2572:	4c 01 63 08          	add    %r12,0x8(%rbx)
    2576:	29 6b 04             	sub    %ebp,0x4(%rbx)
    2579:	4c 89 e0             	mov    %r12,%rax
    257c:	48 83 c4 08          	add    $0x8,%rsp
    2580:	5b                   	pop    %rbx
    2581:	5d                   	pop    %rbp
    2582:	41 5c                	pop    %r12
    2584:	41 5d                	pop    %r13
    2586:	c3                   	retq   
    2587:	48 c7 c0 ff ff ff ff 	mov    $0xffffffffffffffff,%rax
    258e:	eb ec                	jmp    257c <rio_read+0x70>
    2590:	b8 00 00 00 00       	mov    $0x0,%eax
    2595:	eb e5                	jmp    257c <rio_read+0x70>

0000000000002597 <rio_readlineb>:
    2597:	41 55                	push   %r13
    2599:	41 54                	push   %r12
    259b:	55                   	push   %rbp
    259c:	53                   	push   %rbx
    259d:	48 83 ec 18          	sub    $0x18,%rsp
    25a1:	49 89 fd             	mov    %rdi,%r13
    25a4:	48 89 f5             	mov    %rsi,%rbp
    25a7:	49 89 d4             	mov    %rdx,%r12
    25aa:	64 48 8b 04 25 28 00 	mov    %fs:0x28,%rax
    25b1:	00 00 
    25b3:	48 89 44 24 08       	mov    %rax,0x8(%rsp)
    25b8:	31 c0                	xor    %eax,%eax
    25ba:	bb 01 00 00 00       	mov    $0x1,%ebx
    25bf:	4c 39 e3             	cmp    %r12,%rbx
    25c2:	73 47                	jae    260b <rio_readlineb+0x74>
    25c4:	48 8d 74 24 07       	lea    0x7(%rsp),%rsi
    25c9:	ba 01 00 00 00       	mov    $0x1,%edx
    25ce:	4c 89 ef             	mov    %r13,%rdi
    25d1:	e8 36 ff ff ff       	callq  250c <rio_read>
    25d6:	83 f8 01             	cmp    $0x1,%eax
    25d9:	75 1c                	jne    25f7 <rio_readlineb+0x60>
    25db:	48 8d 45 01          	lea    0x1(%rbp),%rax
    25df:	0f b6 54 24 07       	movzbl 0x7(%rsp),%edx
    25e4:	88 55 00             	mov    %dl,0x0(%rbp)
    25e7:	80 7c 24 07 0a       	cmpb   $0xa,0x7(%rsp)
    25ec:	74 1a                	je     2608 <rio_readlineb+0x71>
    25ee:	48 83 c3 01          	add    $0x1,%rbx
    25f2:	48 89 c5             	mov    %rax,%rbp
    25f5:	eb c8                	jmp    25bf <rio_readlineb+0x28>
    25f7:	85 c0                	test   %eax,%eax
    25f9:	75 32                	jne    262d <rio_readlineb+0x96>
    25fb:	48 83 fb 01          	cmp    $0x1,%rbx
    25ff:	75 0a                	jne    260b <rio_readlineb+0x74>
    2601:	b8 00 00 00 00       	mov    $0x0,%eax
    2606:	eb 0a                	jmp    2612 <rio_readlineb+0x7b>
    2608:	48 89 c5             	mov    %rax,%rbp
    260b:	c6 45 00 00          	movb   $0x0,0x0(%rbp)
    260f:	48 89 d8             	mov    %rbx,%rax
    2612:	48 8b 4c 24 08       	mov    0x8(%rsp),%rcx
    2617:	64 48 33 0c 25 28 00 	xor    %fs:0x28,%rcx
    261e:	00 00 
    2620:	75 14                	jne    2636 <rio_readlineb+0x9f>
    2622:	48 83 c4 18          	add    $0x18,%rsp
    2626:	5b                   	pop    %rbx
    2627:	5d                   	pop    %rbp
    2628:	41 5c                	pop    %r12
    262a:	41 5d                	pop    %r13
    262c:	c3                   	retq   
    262d:	48 c7 c0 ff ff ff ff 	mov    $0xffffffffffffffff,%rax
    2634:	eb dc                	jmp    2612 <rio_readlineb+0x7b>
    2636:	e8 a5 e8 ff ff       	callq  ee0 <__stack_chk_fail@plt>

000000000000263b <urlencode>:
    263b:	41 54                	push   %r12
    263d:	55                   	push   %rbp
    263e:	53                   	push   %rbx
    263f:	48 83 ec 10          	sub    $0x10,%rsp
    2643:	48 89 fb             	mov    %rdi,%rbx
    2646:	48 89 f5             	mov    %rsi,%rbp
    2649:	64 48 8b 04 25 28 00 	mov    %fs:0x28,%rax
    2650:	00 00 
    2652:	48 89 44 24 08       	mov    %rax,0x8(%rsp)
    2657:	31 c0                	xor    %eax,%eax
    2659:	48 c7 c1 ff ff ff ff 	mov    $0xffffffffffffffff,%rcx
    2660:	f2 ae                	repnz scas %es:(%rdi),%al
    2662:	48 89 ce             	mov    %rcx,%rsi
    2665:	48 f7 d6             	not    %rsi
    2668:	8d 46 ff             	lea    -0x1(%rsi),%eax
    266b:	eb 0f                	jmp    267c <urlencode+0x41>
    266d:	44 88 45 00          	mov    %r8b,0x0(%rbp)
    2671:	48 8d 6d 01          	lea    0x1(%rbp),%rbp
    2675:	48 83 c3 01          	add    $0x1,%rbx
    2679:	44 89 e0             	mov    %r12d,%eax
    267c:	44 8d 60 ff          	lea    -0x1(%rax),%r12d
    2680:	85 c0                	test   %eax,%eax
    2682:	0f 84 a8 00 00 00    	je     2730 <urlencode+0xf5>
    2688:	44 0f b6 03          	movzbl (%rbx),%r8d
    268c:	41 80 f8 2a          	cmp    $0x2a,%r8b
    2690:	0f 94 c2             	sete   %dl
    2693:	41 80 f8 2d          	cmp    $0x2d,%r8b
    2697:	0f 94 c0             	sete   %al
    269a:	08 c2                	or     %al,%dl
    269c:	75 cf                	jne    266d <urlencode+0x32>
    269e:	41 80 f8 2e          	cmp    $0x2e,%r8b
    26a2:	74 c9                	je     266d <urlencode+0x32>
    26a4:	41 80 f8 5f          	cmp    $0x5f,%r8b
    26a8:	74 c3                	je     266d <urlencode+0x32>
    26aa:	41 8d 40 d0          	lea    -0x30(%r8),%eax
    26ae:	3c 09                	cmp    $0x9,%al
    26b0:	76 bb                	jbe    266d <urlencode+0x32>
    26b2:	41 8d 40 bf          	lea    -0x41(%r8),%eax
    26b6:	3c 19                	cmp    $0x19,%al
    26b8:	76 b3                	jbe    266d <urlencode+0x32>
    26ba:	41 8d 40 9f          	lea    -0x61(%r8),%eax
    26be:	3c 19                	cmp    $0x19,%al
    26c0:	76 ab                	jbe    266d <urlencode+0x32>
    26c2:	41 80 f8 20          	cmp    $0x20,%r8b
    26c6:	74 56                	je     271e <urlencode+0xe3>
    26c8:	41 8d 40 e0          	lea    -0x20(%r8),%eax
    26cc:	3c 5f                	cmp    $0x5f,%al
    26ce:	0f 96 c2             	setbe  %dl
    26d1:	41 80 f8 09          	cmp    $0x9,%r8b
    26d5:	0f 94 c0             	sete   %al
    26d8:	08 c2                	or     %al,%dl
    26da:	74 4f                	je     272b <urlencode+0xf0>
    26dc:	48 89 e7             	mov    %rsp,%rdi
    26df:	45 0f b6 c0          	movzbl %r8b,%r8d
    26e3:	48 8d 0d 4e 13 00 00 	lea    0x134e(%rip),%rcx        # 3a38 <trans_char+0xa8>
    26ea:	ba 08 00 00 00       	mov    $0x8,%edx
    26ef:	be 01 00 00 00       	mov    $0x1,%esi
    26f4:	b8 00 00 00 00       	mov    $0x0,%eax
    26f9:	e8 62 e9 ff ff       	callq  1060 <__sprintf_chk@plt>
    26fe:	0f b6 04 24          	movzbl (%rsp),%eax
    2702:	88 45 00             	mov    %al,0x0(%rbp)
    2705:	0f b6 44 24 01       	movzbl 0x1(%rsp),%eax
    270a:	88 45 01             	mov    %al,0x1(%rbp)
    270d:	0f b6 44 24 02       	movzbl 0x2(%rsp),%eax
    2712:	88 45 02             	mov    %al,0x2(%rbp)
    2715:	48 8d 6d 03          	lea    0x3(%rbp),%rbp
    2719:	e9 57 ff ff ff       	jmpq   2675 <urlencode+0x3a>
    271e:	c6 45 00 2b          	movb   $0x2b,0x0(%rbp)
    2722:	48 8d 6d 01          	lea    0x1(%rbp),%rbp
    2726:	e9 4a ff ff ff       	jmpq   2675 <urlencode+0x3a>
    272b:	b8 ff ff ff ff       	mov    $0xffffffff,%eax
    2730:	48 8b 74 24 08       	mov    0x8(%rsp),%rsi
    2735:	64 48 33 34 25 28 00 	xor    %fs:0x28,%rsi
    273c:	00 00 
    273e:	75 09                	jne    2749 <urlencode+0x10e>
    2740:	48 83 c4 10          	add    $0x10,%rsp
    2744:	5b                   	pop    %rbx
    2745:	5d                   	pop    %rbp
    2746:	41 5c                	pop    %r12
    2748:	c3                   	retq   
    2749:	e8 92 e7 ff ff       	callq  ee0 <__stack_chk_fail@plt>

000000000000274e <submitr>:
    274e:	41 57                	push   %r15
    2750:	41 56                	push   %r14
    2752:	41 55                	push   %r13
    2754:	41 54                	push   %r12
    2756:	55                   	push   %rbp
    2757:	53                   	push   %rbx
    2758:	48 81 ec 68 a0 00 00 	sub    $0xa068,%rsp
    275f:	49 89 fd             	mov    %rdi,%r13
    2762:	89 74 24 14          	mov    %esi,0x14(%rsp)
    2766:	49 89 d7             	mov    %rdx,%r15
    2769:	48 89 4c 24 08       	mov    %rcx,0x8(%rsp)
    276e:	4c 89 44 24 18       	mov    %r8,0x18(%rsp)
    2773:	4d 89 ce             	mov    %r9,%r14
    2776:	48 8b ac 24 a0 a0 00 	mov    0xa0a0(%rsp),%rbp
    277d:	00 
    277e:	64 48 8b 04 25 28 00 	mov    %fs:0x28,%rax
    2785:	00 00 
    2787:	48 89 84 24 58 a0 00 	mov    %rax,0xa058(%rsp)
    278e:	00 
    278f:	31 c0                	xor    %eax,%eax
    2791:	c7 44 24 2c 00 00 00 	movl   $0x0,0x2c(%rsp)
    2798:	00 
    2799:	ba 00 00 00 00       	mov    $0x0,%edx
    279e:	be 01 00 00 00       	mov    $0x1,%esi
    27a3:	bf 02 00 00 00       	mov    $0x2,%edi
    27a8:	e8 c3 e8 ff ff       	callq  1070 <socket@plt>
    27ad:	85 c0                	test   %eax,%eax
    27af:	0f 88 a9 02 00 00    	js     2a5e <submitr+0x310>
    27b5:	89 c3                	mov    %eax,%ebx
    27b7:	4c 89 ef             	mov    %r13,%rdi
    27ba:	e8 91 e7 ff ff       	callq  f50 <gethostbyname@plt>
    27bf:	48 85 c0             	test   %rax,%rax
    27c2:	0f 84 e2 02 00 00    	je     2aaa <submitr+0x35c>
    27c8:	4c 8d 64 24 30       	lea    0x30(%rsp),%r12
    27cd:	48 c7 44 24 32 00 00 	movq   $0x0,0x32(%rsp)
    27d4:	00 00 
    27d6:	c7 44 24 3a 00 00 00 	movl   $0x0,0x3a(%rsp)
    27dd:	00 
    27de:	66 c7 44 24 3e 00 00 	movw   $0x0,0x3e(%rsp)
    27e5:	66 c7 44 24 30 02 00 	movw   $0x2,0x30(%rsp)
    27ec:	48 63 50 14          	movslq 0x14(%rax),%rdx
    27f0:	48 8b 40 18          	mov    0x18(%rax),%rax
    27f4:	48 8b 30             	mov    (%rax),%rsi
    27f7:	48 8d 7c 24 34       	lea    0x34(%rsp),%rdi
    27fc:	b9 0c 00 00 00       	mov    $0xc,%ecx
    2801:	e8 5a e7 ff ff       	callq  f60 <__memmove_chk@plt>
    2806:	0f b7 44 24 14       	movzwl 0x14(%rsp),%eax
    280b:	66 c1 c8 08          	ror    $0x8,%ax
    280f:	66 89 44 24 32       	mov    %ax,0x32(%rsp)
    2814:	ba 10 00 00 00       	mov    $0x10,%edx
    2819:	4c 89 e6             	mov    %r12,%rsi
    281c:	89 df                	mov    %ebx,%edi
    281e:	e8 1d e8 ff ff       	callq  1040 <connect@plt>
    2823:	85 c0                	test   %eax,%eax
    2825:	0f 88 e7 02 00 00    	js     2b12 <submitr+0x3c4>
    282b:	48 c7 c6 ff ff ff ff 	mov    $0xffffffffffffffff,%rsi
    2832:	b8 00 00 00 00       	mov    $0x0,%eax
    2837:	48 89 f1             	mov    %rsi,%rcx
    283a:	4c 89 f7             	mov    %r14,%rdi
    283d:	f2 ae                	repnz scas %es:(%rdi),%al
    283f:	48 89 ca             	mov    %rcx,%rdx
    2842:	48 f7 d2             	not    %rdx
    2845:	48 89 f1             	mov    %rsi,%rcx
    2848:	4c 89 ff             	mov    %r15,%rdi
    284b:	f2 ae                	repnz scas %es:(%rdi),%al
    284d:	48 f7 d1             	not    %rcx
    2850:	49 89 c8             	mov    %rcx,%r8
    2853:	48 89 f1             	mov    %rsi,%rcx
    2856:	48 8b 7c 24 08       	mov    0x8(%rsp),%rdi
    285b:	f2 ae                	repnz scas %es:(%rdi),%al
    285d:	48 f7 d1             	not    %rcx
    2860:	4d 8d 44 08 fe       	lea    -0x2(%r8,%rcx,1),%r8
    2865:	48 89 f1             	mov    %rsi,%rcx
    2868:	48 8b 7c 24 18       	mov    0x18(%rsp),%rdi
    286d:	f2 ae                	repnz scas %es:(%rdi),%al
    286f:	48 89 c8             	mov    %rcx,%rax
    2872:	48 f7 d0             	not    %rax
    2875:	49 8d 4c 00 ff       	lea    -0x1(%r8,%rax,1),%rcx
    287a:	48 8d 44 52 fd       	lea    -0x3(%rdx,%rdx,2),%rax
    287f:	48 8d 84 01 80 00 00 	lea    0x80(%rcx,%rax,1),%rax
    2886:	00 
    2887:	48 3d 00 20 00 00    	cmp    $0x2000,%rax
    288d:	0f 87 d9 02 00 00    	ja     2b6c <submitr+0x41e>
    2893:	48 8d b4 24 50 40 00 	lea    0x4050(%rsp),%rsi
    289a:	00 
    289b:	b9 00 04 00 00       	mov    $0x400,%ecx
    28a0:	b8 00 00 00 00       	mov    $0x0,%eax
    28a5:	48 89 f7             	mov    %rsi,%rdi
    28a8:	f3 48 ab             	rep stos %rax,%es:(%rdi)
    28ab:	4c 89 f7             	mov    %r14,%rdi
    28ae:	e8 88 fd ff ff       	callq  263b <urlencode>
    28b3:	85 c0                	test   %eax,%eax
    28b5:	0f 88 24 03 00 00    	js     2bdf <submitr+0x491>
    28bb:	4c 8d a4 24 50 20 00 	lea    0x2050(%rsp),%r12
    28c2:	00 
    28c3:	41 55                	push   %r13
    28c5:	48 8d 84 24 58 40 00 	lea    0x4058(%rsp),%rax
    28cc:	00 
    28cd:	50                   	push   %rax
    28ce:	4d 89 f9             	mov    %r15,%r9
    28d1:	4c 8b 44 24 18       	mov    0x18(%rsp),%r8
    28d6:	48 8d 0d eb 10 00 00 	lea    0x10eb(%rip),%rcx        # 39c8 <trans_char+0x38>
    28dd:	ba 00 20 00 00       	mov    $0x2000,%edx
    28e2:	be 01 00 00 00       	mov    $0x1,%esi
    28e7:	4c 89 e7             	mov    %r12,%rdi
    28ea:	b8 00 00 00 00       	mov    $0x0,%eax
    28ef:	e8 6c e7 ff ff       	callq  1060 <__sprintf_chk@plt>
    28f4:	48 c7 c1 ff ff ff ff 	mov    $0xffffffffffffffff,%rcx
    28fb:	b8 00 00 00 00       	mov    $0x0,%eax
    2900:	4c 89 e7             	mov    %r12,%rdi
    2903:	f2 ae                	repnz scas %es:(%rdi),%al
    2905:	48 89 ca             	mov    %rcx,%rdx
    2908:	48 f7 d2             	not    %rdx
    290b:	48 8d 52 ff          	lea    -0x1(%rdx),%rdx
    290f:	4c 89 e6             	mov    %r12,%rsi
    2912:	89 df                	mov    %ebx,%edi
    2914:	e8 95 fb ff ff       	callq  24ae <rio_writen>
    2919:	48 83 c4 10          	add    $0x10,%rsp
    291d:	48 85 c0             	test   %rax,%rax
    2920:	0f 88 44 03 00 00    	js     2c6a <submitr+0x51c>
    2926:	4c 8d 64 24 40       	lea    0x40(%rsp),%r12
    292b:	89 de                	mov    %ebx,%esi
    292d:	4c 89 e7             	mov    %r12,%rdi
    2930:	e8 37 fb ff ff       	callq  246c <rio_readinitb>
    2935:	48 8d b4 24 50 20 00 	lea    0x2050(%rsp),%rsi
    293c:	00 
    293d:	ba 00 20 00 00       	mov    $0x2000,%edx
    2942:	4c 89 e7             	mov    %r12,%rdi
    2945:	e8 4d fc ff ff       	callq  2597 <rio_readlineb>
    294a:	48 85 c0             	test   %rax,%rax
    294d:	0f 8e 86 03 00 00    	jle    2cd9 <submitr+0x58b>
    2953:	48 8d 4c 24 2c       	lea    0x2c(%rsp),%rcx
    2958:	48 8d 94 24 50 60 00 	lea    0x6050(%rsp),%rdx
    295f:	00 
    2960:	48 8d bc 24 50 20 00 	lea    0x2050(%rsp),%rdi
    2967:	00 
    2968:	4c 8d 84 24 50 80 00 	lea    0x8050(%rsp),%r8
    296f:	00 
    2970:	48 8d 35 c8 10 00 00 	lea    0x10c8(%rip),%rsi        # 3a3f <trans_char+0xaf>
    2977:	b8 00 00 00 00       	mov    $0x0,%eax
    297c:	e8 3f e6 ff ff       	callq  fc0 <__isoc99_sscanf@plt>
    2981:	48 8d b4 24 50 20 00 	lea    0x2050(%rsp),%rsi
    2988:	00 
    2989:	b9 03 00 00 00       	mov    $0x3,%ecx
    298e:	48 8d 3d c1 10 00 00 	lea    0x10c1(%rip),%rdi        # 3a56 <trans_char+0xc6>
    2995:	f3 a6                	repz cmpsb %es:(%rdi),%ds:(%rsi)
    2997:	0f 97 c0             	seta   %al
    299a:	1c 00                	sbb    $0x0,%al
    299c:	84 c0                	test   %al,%al
    299e:	0f 84 b3 03 00 00    	je     2d57 <submitr+0x609>
    29a4:	48 8d b4 24 50 20 00 	lea    0x2050(%rsp),%rsi
    29ab:	00 
    29ac:	48 8d 7c 24 40       	lea    0x40(%rsp),%rdi
    29b1:	ba 00 20 00 00       	mov    $0x2000,%edx
    29b6:	e8 dc fb ff ff       	callq  2597 <rio_readlineb>
    29bb:	48 85 c0             	test   %rax,%rax
    29be:	7f c1                	jg     2981 <submitr+0x233>
    29c0:	48 b8 45 72 72 6f 72 	movabs $0x43203a726f727245,%rax
    29c7:	3a 20 43 
    29ca:	48 ba 6c 69 65 6e 74 	movabs $0x6e7520746e65696c,%rdx
    29d1:	20 75 6e 
    29d4:	48 89 45 00          	mov    %rax,0x0(%rbp)
    29d8:	48 89 55 08          	mov    %rdx,0x8(%rbp)
    29dc:	48 b8 61 62 6c 65 20 	movabs $0x206f7420656c6261,%rax
    29e3:	74 6f 20 
    29e6:	48 ba 72 65 61 64 20 	movabs $0x6165682064616572,%rdx
    29ed:	68 65 61 
    29f0:	48 89 45 10          	mov    %rax,0x10(%rbp)
    29f4:	48 89 55 18          	mov    %rdx,0x18(%rbp)
    29f8:	48 b8 64 65 72 73 20 	movabs $0x6f72662073726564,%rax
    29ff:	66 72 6f 
    2a02:	48 ba 6d 20 74 68 65 	movabs $0x657220656874206d,%rdx
    2a09:	20 72 65 
    2a0c:	48 89 45 20          	mov    %rax,0x20(%rbp)
    2a10:	48 89 55 28          	mov    %rdx,0x28(%rbp)
    2a14:	48 b8 73 75 6c 74 20 	movabs $0x72657320746c7573,%rax
    2a1b:	73 65 72 
    2a1e:	48 89 45 30          	mov    %rax,0x30(%rbp)
    2a22:	c7 45 38 76 65 72 00 	movl   $0x726576,0x38(%rbp)
    2a29:	89 df                	mov    %ebx,%edi
    2a2b:	e8 f0 e4 ff ff       	callq  f20 <close@plt>
    2a30:	b8 ff ff ff ff       	mov    $0xffffffff,%eax
    2a35:	48 8b 9c 24 58 a0 00 	mov    0xa058(%rsp),%rbx
    2a3c:	00 
    2a3d:	64 48 33 1c 25 28 00 	xor    %fs:0x28,%rbx
    2a44:	00 00 
    2a46:	0f 85 7e 04 00 00    	jne    2eca <submitr+0x77c>
    2a4c:	48 81 c4 68 a0 00 00 	add    $0xa068,%rsp
    2a53:	5b                   	pop    %rbx
    2a54:	5d                   	pop    %rbp
    2a55:	41 5c                	pop    %r12
    2a57:	41 5d                	pop    %r13
    2a59:	41 5e                	pop    %r14
    2a5b:	41 5f                	pop    %r15
    2a5d:	c3                   	retq   
    2a5e:	48 b8 45 72 72 6f 72 	movabs $0x43203a726f727245,%rax
    2a65:	3a 20 43 
    2a68:	48 ba 6c 69 65 6e 74 	movabs $0x6e7520746e65696c,%rdx
    2a6f:	20 75 6e 
    2a72:	48 89 45 00          	mov    %rax,0x0(%rbp)
    2a76:	48 89 55 08          	mov    %rdx,0x8(%rbp)
    2a7a:	48 b8 61 62 6c 65 20 	movabs $0x206f7420656c6261,%rax
    2a81:	74 6f 20 
    2a84:	48 ba 63 72 65 61 74 	movabs $0x7320657461657263,%rdx
    2a8b:	65 20 73 
    2a8e:	48 89 45 10          	mov    %rax,0x10(%rbp)
    2a92:	48 89 55 18          	mov    %rdx,0x18(%rbp)
    2a96:	c7 45 20 6f 63 6b 65 	movl   $0x656b636f,0x20(%rbp)
    2a9d:	66 c7 45 24 74 00    	movw   $0x74,0x24(%rbp)
    2aa3:	b8 ff ff ff ff       	mov    $0xffffffff,%eax
    2aa8:	eb 8b                	jmp    2a35 <submitr+0x2e7>
    2aaa:	48 b8 45 72 72 6f 72 	movabs $0x44203a726f727245,%rax
    2ab1:	3a 20 44 
    2ab4:	48 ba 4e 53 20 69 73 	movabs $0x6e7520736920534e,%rdx
    2abb:	20 75 6e 
    2abe:	48 89 45 00          	mov    %rax,0x0(%rbp)
    2ac2:	48 89 55 08          	mov    %rdx,0x8(%rbp)
    2ac6:	48 b8 61 62 6c 65 20 	movabs $0x206f7420656c6261,%rax
    2acd:	74 6f 20 
    2ad0:	48 ba 72 65 73 6f 6c 	movabs $0x2065766c6f736572,%rdx
    2ad7:	76 65 20 
    2ada:	48 89 45 10          	mov    %rax,0x10(%rbp)
    2ade:	48 89 55 18          	mov    %rdx,0x18(%rbp)
    2ae2:	48 b8 73 65 72 76 65 	movabs $0x6120726576726573,%rax
    2ae9:	72 20 61 
    2aec:	48 89 45 20          	mov    %rax,0x20(%rbp)
    2af0:	c7 45 28 64 64 72 65 	movl   $0x65726464,0x28(%rbp)
    2af7:	66 c7 45 2c 73 73    	movw   $0x7373,0x2c(%rbp)
    2afd:	c6 45 2e 00          	movb   $0x0,0x2e(%rbp)
    2b01:	89 df                	mov    %ebx,%edi
    2b03:	e8 18 e4 ff ff       	callq  f20 <close@plt>
    2b08:	b8 ff ff ff ff       	mov    $0xffffffff,%eax
    2b0d:	e9 23 ff ff ff       	jmpq   2a35 <submitr+0x2e7>
    2b12:	48 b8 45 72 72 6f 72 	movabs $0x55203a726f727245,%rax
    2b19:	3a 20 55 
    2b1c:	48 ba 6e 61 62 6c 65 	movabs $0x6f7420656c62616e,%rdx
    2b23:	20 74 6f 
    2b26:	48 89 45 00          	mov    %rax,0x0(%rbp)
    2b2a:	48 89 55 08          	mov    %rdx,0x8(%rbp)
    2b2e:	48 b8 20 63 6f 6e 6e 	movabs $0x7463656e6e6f6320,%rax
    2b35:	65 63 74 
    2b38:	48 ba 20 74 6f 20 74 	movabs $0x20656874206f7420,%rdx
    2b3f:	68 65 20 
    2b42:	48 89 45 10          	mov    %rax,0x10(%rbp)
    2b46:	48 89 55 18          	mov    %rdx,0x18(%rbp)
    2b4a:	c7 45 20 73 65 72 76 	movl   $0x76726573,0x20(%rbp)
    2b51:	66 c7 45 24 65 72    	movw   $0x7265,0x24(%rbp)
    2b57:	c6 45 26 00          	movb   $0x0,0x26(%rbp)
    2b5b:	89 df                	mov    %ebx,%edi
    2b5d:	e8 be e3 ff ff       	callq  f20 <close@plt>
    2b62:	b8 ff ff ff ff       	mov    $0xffffffff,%eax
    2b67:	e9 c9 fe ff ff       	jmpq   2a35 <submitr+0x2e7>
    2b6c:	48 b8 45 72 72 6f 72 	movabs $0x52203a726f727245,%rax
    2b73:	3a 20 52 
    2b76:	48 ba 65 73 75 6c 74 	movabs $0x747320746c757365,%rdx
    2b7d:	20 73 74 
    2b80:	48 89 45 00          	mov    %rax,0x0(%rbp)
    2b84:	48 89 55 08          	mov    %rdx,0x8(%rbp)
    2b88:	48 b8 72 69 6e 67 20 	movabs $0x6f6f7420676e6972,%rax
    2b8f:	74 6f 6f 
    2b92:	48 ba 20 6c 61 72 67 	movabs $0x202e656772616c20,%rdx
    2b99:	65 2e 20 
    2b9c:	48 89 45 10          	mov    %rax,0x10(%rbp)
    2ba0:	48 89 55 18          	mov    %rdx,0x18(%rbp)
    2ba4:	48 b8 49 6e 63 72 65 	movabs $0x6573616572636e49,%rax
    2bab:	61 73 65 
    2bae:	48 ba 20 53 55 42 4d 	movabs $0x5254494d42555320,%rdx
    2bb5:	49 54 52 
    2bb8:	48 89 45 20          	mov    %rax,0x20(%rbp)
    2bbc:	48 89 55 28          	mov    %rdx,0x28(%rbp)
    2bc0:	48 b8 5f 4d 41 58 42 	movabs $0x46554258414d5f,%rax
    2bc7:	55 46 00 
    2bca:	48 89 45 30          	mov    %rax,0x30(%rbp)
    2bce:	89 df                	mov    %ebx,%edi
    2bd0:	e8 4b e3 ff ff       	callq  f20 <close@plt>
    2bd5:	b8 ff ff ff ff       	mov    $0xffffffff,%eax
    2bda:	e9 56 fe ff ff       	jmpq   2a35 <submitr+0x2e7>
    2bdf:	48 b8 45 72 72 6f 72 	movabs $0x52203a726f727245,%rax
    2be6:	3a 20 52 
    2be9:	48 ba 65 73 75 6c 74 	movabs $0x747320746c757365,%rdx
    2bf0:	20 73 74 
    2bf3:	48 89 45 00          	mov    %rax,0x0(%rbp)
    2bf7:	48 89 55 08          	mov    %rdx,0x8(%rbp)
    2bfb:	48 b8 72 69 6e 67 20 	movabs $0x6e6f6320676e6972,%rax
    2c02:	63 6f 6e 
    2c05:	48 ba 74 61 69 6e 73 	movabs $0x6e6120736e696174,%rdx
    2c0c:	20 61 6e 
    2c0f:	48 89 45 10          	mov    %rax,0x10(%rbp)
    2c13:	48 89 55 18          	mov    %rdx,0x18(%rbp)
    2c17:	48 b8 20 69 6c 6c 65 	movabs $0x6c6167656c6c6920,%rax
    2c1e:	67 61 6c 
    2c21:	48 ba 20 6f 72 20 75 	movabs $0x72706e7520726f20,%rdx
    2c28:	6e 70 72 
    2c2b:	48 89 45 20          	mov    %rax,0x20(%rbp)
    2c2f:	48 89 55 28          	mov    %rdx,0x28(%rbp)
    2c33:	48 b8 69 6e 74 61 62 	movabs $0x20656c6261746e69,%rax
    2c3a:	6c 65 20 
    2c3d:	48 ba 63 68 61 72 61 	movabs $0x6574636172616863,%rdx
    2c44:	63 74 65 
    2c47:	48 89 45 30          	mov    %rax,0x30(%rbp)
    2c4b:	48 89 55 38          	mov    %rdx,0x38(%rbp)
    2c4f:	66 c7 45 40 72 2e    	movw   $0x2e72,0x40(%rbp)
    2c55:	c6 45 42 00          	movb   $0x0,0x42(%rbp)
    2c59:	89 df                	mov    %ebx,%edi
    2c5b:	e8 c0 e2 ff ff       	callq  f20 <close@plt>
    2c60:	b8 ff ff ff ff       	mov    $0xffffffff,%eax
    2c65:	e9 cb fd ff ff       	jmpq   2a35 <submitr+0x2e7>
    2c6a:	48 b8 45 72 72 6f 72 	movabs $0x43203a726f727245,%rax
    2c71:	3a 20 43 
    2c74:	48 ba 6c 69 65 6e 74 	movabs $0x6e7520746e65696c,%rdx
    2c7b:	20 75 6e 
    2c7e:	48 89 45 00          	mov    %rax,0x0(%rbp)
    2c82:	48 89 55 08          	mov    %rdx,0x8(%rbp)
    2c86:	48 b8 61 62 6c 65 20 	movabs $0x206f7420656c6261,%rax
    2c8d:	74 6f 20 
    2c90:	48 ba 77 72 69 74 65 	movabs $0x6f74206574697277,%rdx
    2c97:	20 74 6f 
    2c9a:	48 89 45 10          	mov    %rax,0x10(%rbp)
    2c9e:	48 89 55 18          	mov    %rdx,0x18(%rbp)
    2ca2:	48 b8 20 74 68 65 20 	movabs $0x7365722065687420,%rax
    2ca9:	72 65 73 
    2cac:	48 ba 75 6c 74 20 73 	movabs $0x7672657320746c75,%rdx
    2cb3:	65 72 76 
    2cb6:	48 89 45 20          	mov    %rax,0x20(%rbp)
    2cba:	48 89 55 28          	mov    %rdx,0x28(%rbp)
    2cbe:	66 c7 45 30 65 72    	movw   $0x7265,0x30(%rbp)
    2cc4:	c6 45 32 00          	movb   $0x0,0x32(%rbp)
    2cc8:	89 df                	mov    %ebx,%edi
    2cca:	e8 51 e2 ff ff       	callq  f20 <close@plt>
    2ccf:	b8 ff ff ff ff       	mov    $0xffffffff,%eax
    2cd4:	e9 5c fd ff ff       	jmpq   2a35 <submitr+0x2e7>
    2cd9:	48 b8 45 72 72 6f 72 	movabs $0x43203a726f727245,%rax
    2ce0:	3a 20 43 
    2ce3:	48 ba 6c 69 65 6e 74 	movabs $0x6e7520746e65696c,%rdx
    2cea:	20 75 6e 
    2ced:	48 89 45 00          	mov    %rax,0x0(%rbp)
    2cf1:	48 89 55 08          	mov    %rdx,0x8(%rbp)
    2cf5:	48 b8 61 62 6c 65 20 	movabs $0x206f7420656c6261,%rax
    2cfc:	74 6f 20 
    2cff:	48 ba 72 65 61 64 20 	movabs $0x7269662064616572,%rdx
    2d06:	66 69 72 
    2d09:	48 89 45 10          	mov    %rax,0x10(%rbp)
    2d0d:	48 89 55 18          	mov    %rdx,0x18(%rbp)
    2d11:	48 b8 73 74 20 68 65 	movabs $0x6564616568207473,%rax
    2d18:	61 64 65 
    2d1b:	48 ba 72 20 66 72 6f 	movabs $0x72206d6f72662072,%rdx
    2d22:	6d 20 72 
    2d25:	48 89 45 20          	mov    %rax,0x20(%rbp)
    2d29:	48 89 55 28          	mov    %rdx,0x28(%rbp)
    2d2d:	48 b8 65 73 75 6c 74 	movabs $0x657320746c757365,%rax
    2d34:	20 73 65 
    2d37:	48 89 45 30          	mov    %rax,0x30(%rbp)
    2d3b:	c7 45 38 72 76 65 72 	movl   $0x72657672,0x38(%rbp)
    2d42:	c6 45 3c 00          	movb   $0x0,0x3c(%rbp)
    2d46:	89 df                	mov    %ebx,%edi
    2d48:	e8 d3 e1 ff ff       	callq  f20 <close@plt>
    2d4d:	b8 ff ff ff ff       	mov    $0xffffffff,%eax
    2d52:	e9 de fc ff ff       	jmpq   2a35 <submitr+0x2e7>
    2d57:	48 8d b4 24 50 20 00 	lea    0x2050(%rsp),%rsi
    2d5e:	00 
    2d5f:	48 8d 7c 24 40       	lea    0x40(%rsp),%rdi
    2d64:	ba 00 20 00 00       	mov    $0x2000,%edx
    2d69:	e8 29 f8 ff ff       	callq  2597 <rio_readlineb>
    2d6e:	48 85 c0             	test   %rax,%rax
    2d71:	0f 8e 96 00 00 00    	jle    2e0d <submitr+0x6bf>
    2d77:	44 8b 44 24 2c       	mov    0x2c(%rsp),%r8d
    2d7c:	41 81 f8 c8 00 00 00 	cmp    $0xc8,%r8d
    2d83:	0f 85 08 01 00 00    	jne    2e91 <submitr+0x743>
    2d89:	48 8d b4 24 50 20 00 	lea    0x2050(%rsp),%rsi
    2d90:	00 
    2d91:	48 89 ef             	mov    %rbp,%rdi
    2d94:	e8 17 e1 ff ff       	callq  eb0 <strcpy@plt>
    2d99:	89 df                	mov    %ebx,%edi
    2d9b:	e8 80 e1 ff ff       	callq  f20 <close@plt>
    2da0:	b9 04 00 00 00       	mov    $0x4,%ecx
    2da5:	48 8d 3d a4 0c 00 00 	lea    0xca4(%rip),%rdi        # 3a50 <trans_char+0xc0>
    2dac:	48 89 ee             	mov    %rbp,%rsi
    2daf:	f3 a6                	repz cmpsb %es:(%rdi),%ds:(%rsi)
    2db1:	0f 97 c0             	seta   %al
    2db4:	1c 00                	sbb    $0x0,%al
    2db6:	0f be c0             	movsbl %al,%eax
    2db9:	85 c0                	test   %eax,%eax
    2dbb:	0f 84 74 fc ff ff    	je     2a35 <submitr+0x2e7>
    2dc1:	b9 05 00 00 00       	mov    $0x5,%ecx
    2dc6:	48 8d 3d 87 0c 00 00 	lea    0xc87(%rip),%rdi        # 3a54 <trans_char+0xc4>
    2dcd:	48 89 ee             	mov    %rbp,%rsi
    2dd0:	f3 a6                	repz cmpsb %es:(%rdi),%ds:(%rsi)
    2dd2:	0f 97 c0             	seta   %al
    2dd5:	1c 00                	sbb    $0x0,%al
    2dd7:	0f be c0             	movsbl %al,%eax
    2dda:	85 c0                	test   %eax,%eax
    2ddc:	0f 84 53 fc ff ff    	je     2a35 <submitr+0x2e7>
    2de2:	b9 03 00 00 00       	mov    $0x3,%ecx
    2de7:	48 8d 3d 6b 0c 00 00 	lea    0xc6b(%rip),%rdi        # 3a59 <trans_char+0xc9>
    2dee:	48 89 ee             	mov    %rbp,%rsi
    2df1:	f3 a6                	repz cmpsb %es:(%rdi),%ds:(%rsi)
    2df3:	0f 97 c0             	seta   %al
    2df6:	1c 00                	sbb    $0x0,%al
    2df8:	0f be c0             	movsbl %al,%eax
    2dfb:	85 c0                	test   %eax,%eax
    2dfd:	0f 84 32 fc ff ff    	je     2a35 <submitr+0x2e7>
    2e03:	b8 ff ff ff ff       	mov    $0xffffffff,%eax
    2e08:	e9 28 fc ff ff       	jmpq   2a35 <submitr+0x2e7>
    2e0d:	48 b8 45 72 72 6f 72 	movabs $0x43203a726f727245,%rax
    2e14:	3a 20 43 
    2e17:	48 ba 6c 69 65 6e 74 	movabs $0x6e7520746e65696c,%rdx
    2e1e:	20 75 6e 
    2e21:	48 89 45 00          	mov    %rax,0x0(%rbp)
    2e25:	48 89 55 08          	mov    %rdx,0x8(%rbp)
    2e29:	48 b8 61 62 6c 65 20 	movabs $0x206f7420656c6261,%rax
    2e30:	74 6f 20 
    2e33:	48 ba 72 65 61 64 20 	movabs $0x6174732064616572,%rdx
    2e3a:	73 74 61 
    2e3d:	48 89 45 10          	mov    %rax,0x10(%rbp)
    2e41:	48 89 55 18          	mov    %rdx,0x18(%rbp)
    2e45:	48 b8 74 75 73 20 6d 	movabs $0x7373656d20737574,%rax
    2e4c:	65 73 73 
    2e4f:	48 ba 61 67 65 20 66 	movabs $0x6d6f726620656761,%rdx
    2e56:	72 6f 6d 
    2e59:	48 89 45 20          	mov    %rax,0x20(%rbp)
    2e5d:	48 89 55 28          	mov    %rdx,0x28(%rbp)
    2e61:	48 b8 20 72 65 73 75 	movabs $0x20746c7573657220,%rax
    2e68:	6c 74 20 
    2e6b:	48 89 45 30          	mov    %rax,0x30(%rbp)
    2e6f:	c7 45 38 73 65 72 76 	movl   $0x76726573,0x38(%rbp)
    2e76:	66 c7 45 3c 65 72    	movw   $0x7265,0x3c(%rbp)
    2e7c:	c6 45 3e 00          	movb   $0x0,0x3e(%rbp)
    2e80:	89 df                	mov    %ebx,%edi
    2e82:	e8 99 e0 ff ff       	callq  f20 <close@plt>
    2e87:	b8 ff ff ff ff       	mov    $0xffffffff,%eax
    2e8c:	e9 a4 fb ff ff       	jmpq   2a35 <submitr+0x2e7>
    2e91:	4c 8d 8c 24 50 80 00 	lea    0x8050(%rsp),%r9
    2e98:	00 
    2e99:	48 8d 0d 68 0b 00 00 	lea    0xb68(%rip),%rcx        # 3a08 <trans_char+0x78>
    2ea0:	48 c7 c2 ff ff ff ff 	mov    $0xffffffffffffffff,%rdx
    2ea7:	be 01 00 00 00       	mov    $0x1,%esi
    2eac:	48 89 ef             	mov    %rbp,%rdi
    2eaf:	b8 00 00 00 00       	mov    $0x0,%eax
    2eb4:	e8 a7 e1 ff ff       	callq  1060 <__sprintf_chk@plt>
    2eb9:	89 df                	mov    %ebx,%edi
    2ebb:	e8 60 e0 ff ff       	callq  f20 <close@plt>
    2ec0:	b8 ff ff ff ff       	mov    $0xffffffff,%eax
    2ec5:	e9 6b fb ff ff       	jmpq   2a35 <submitr+0x2e7>
    2eca:	e8 11 e0 ff ff       	callq  ee0 <__stack_chk_fail@plt>

0000000000002ecf <init_timeout>:
    2ecf:	85 ff                	test   %edi,%edi
    2ed1:	74 28                	je     2efb <init_timeout+0x2c>
    2ed3:	53                   	push   %rbx
    2ed4:	89 fb                	mov    %edi,%ebx
    2ed6:	85 ff                	test   %edi,%edi
    2ed8:	78 1a                	js     2ef4 <init_timeout+0x25>
    2eda:	48 8d 35 9d f5 ff ff 	lea    -0xa63(%rip),%rsi        # 247e <sigalrm_handler>
    2ee1:	bf 0e 00 00 00       	mov    $0xe,%edi
    2ee6:	e8 55 e0 ff ff       	callq  f40 <signal@plt>
    2eeb:	89 df                	mov    %ebx,%edi
    2eed:	e8 1e e0 ff ff       	callq  f10 <alarm@plt>
    2ef2:	5b                   	pop    %rbx
    2ef3:	c3                   	retq   
    2ef4:	bb 00 00 00 00       	mov    $0x0,%ebx
    2ef9:	eb df                	jmp    2eda <init_timeout+0xb>
    2efb:	f3 c3                	repz retq 

0000000000002efd <init_driver>:
    2efd:	41 54                	push   %r12
    2eff:	55                   	push   %rbp
    2f00:	53                   	push   %rbx
    2f01:	48 83 ec 20          	sub    $0x20,%rsp
    2f05:	49 89 fc             	mov    %rdi,%r12
    2f08:	64 48 8b 04 25 28 00 	mov    %fs:0x28,%rax
    2f0f:	00 00 
    2f11:	48 89 44 24 18       	mov    %rax,0x18(%rsp)
    2f16:	31 c0                	xor    %eax,%eax
    2f18:	be 01 00 00 00       	mov    $0x1,%esi
    2f1d:	bf 0d 00 00 00       	mov    $0xd,%edi
    2f22:	e8 19 e0 ff ff       	callq  f40 <signal@plt>
    2f27:	be 01 00 00 00       	mov    $0x1,%esi
    2f2c:	bf 1d 00 00 00       	mov    $0x1d,%edi
    2f31:	e8 0a e0 ff ff       	callq  f40 <signal@plt>
    2f36:	be 01 00 00 00       	mov    $0x1,%esi
    2f3b:	bf 1d 00 00 00       	mov    $0x1d,%edi
    2f40:	e8 fb df ff ff       	callq  f40 <signal@plt>
    2f45:	ba 00 00 00 00       	mov    $0x0,%edx
    2f4a:	be 01 00 00 00       	mov    $0x1,%esi
    2f4f:	bf 02 00 00 00       	mov    $0x2,%edi
    2f54:	e8 17 e1 ff ff       	callq  1070 <socket@plt>
    2f59:	85 c0                	test   %eax,%eax
    2f5b:	0f 88 a3 00 00 00    	js     3004 <init_driver+0x107>
    2f61:	89 c3                	mov    %eax,%ebx
    2f63:	48 8d 3d e2 05 00 00 	lea    0x5e2(%rip),%rdi        # 354c <_IO_stdin_used+0x2dc>
    2f6a:	e8 e1 df ff ff       	callq  f50 <gethostbyname@plt>
    2f6f:	48 85 c0             	test   %rax,%rax
    2f72:	0f 84 df 00 00 00    	je     3057 <init_driver+0x15a>
    2f78:	48 89 e5             	mov    %rsp,%rbp
    2f7b:	48 c7 44 24 02 00 00 	movq   $0x0,0x2(%rsp)
    2f82:	00 00 
    2f84:	c7 45 0a 00 00 00 00 	movl   $0x0,0xa(%rbp)
    2f8b:	66 c7 45 0e 00 00    	movw   $0x0,0xe(%rbp)
    2f91:	66 c7 04 24 02 00    	movw   $0x2,(%rsp)
    2f97:	48 63 50 14          	movslq 0x14(%rax),%rdx
    2f9b:	48 8b 40 18          	mov    0x18(%rax),%rax
    2f9f:	48 8b 30             	mov    (%rax),%rsi
    2fa2:	48 8d 7d 04          	lea    0x4(%rbp),%rdi
    2fa6:	b9 0c 00 00 00       	mov    $0xc,%ecx
    2fab:	e8 b0 df ff ff       	callq  f60 <__memmove_chk@plt>
    2fb0:	66 c7 44 24 02 3c 9a 	movw   $0x9a3c,0x2(%rsp)
    2fb7:	ba 10 00 00 00       	mov    $0x10,%edx
    2fbc:	48 89 ee             	mov    %rbp,%rsi
    2fbf:	89 df                	mov    %ebx,%edi
    2fc1:	e8 7a e0 ff ff       	callq  1040 <connect@plt>
    2fc6:	85 c0                	test   %eax,%eax
    2fc8:	0f 88 fb 00 00 00    	js     30c9 <init_driver+0x1cc>
    2fce:	89 df                	mov    %ebx,%edi
    2fd0:	e8 4b df ff ff       	callq  f20 <close@plt>
    2fd5:	66 41 c7 04 24 4f 4b 	movw   $0x4b4f,(%r12)
    2fdc:	41 c6 44 24 02 00    	movb   $0x0,0x2(%r12)
    2fe2:	b8 00 00 00 00       	mov    $0x0,%eax
    2fe7:	48 8b 4c 24 18       	mov    0x18(%rsp),%rcx
    2fec:	64 48 33 0c 25 28 00 	xor    %fs:0x28,%rcx
    2ff3:	00 00 
    2ff5:	0f 85 28 01 00 00    	jne    3123 <init_driver+0x226>
    2ffb:	48 83 c4 20          	add    $0x20,%rsp
    2fff:	5b                   	pop    %rbx
    3000:	5d                   	pop    %rbp
    3001:	41 5c                	pop    %r12
    3003:	c3                   	retq   
    3004:	48 b8 45 72 72 6f 72 	movabs $0x43203a726f727245,%rax
    300b:	3a 20 43 
    300e:	48 ba 6c 69 65 6e 74 	movabs $0x6e7520746e65696c,%rdx
    3015:	20 75 6e 
    3018:	49 89 04 24          	mov    %rax,(%r12)
    301c:	49 89 54 24 08       	mov    %rdx,0x8(%r12)
    3021:	48 b8 61 62 6c 65 20 	movabs $0x206f7420656c6261,%rax
    3028:	74 6f 20 
    302b:	48 ba 63 72 65 61 74 	movabs $0x7320657461657263,%rdx
    3032:	65 20 73 
    3035:	49 89 44 24 10       	mov    %rax,0x10(%r12)
    303a:	49 89 54 24 18       	mov    %rdx,0x18(%r12)
    303f:	41 c7 44 24 20 6f 63 	movl   $0x656b636f,0x20(%r12)
    3046:	6b 65 
    3048:	66 41 c7 44 24 24 74 	movw   $0x74,0x24(%r12)
    304f:	00 
    3050:	b8 ff ff ff ff       	mov    $0xffffffff,%eax
    3055:	eb 90                	jmp    2fe7 <init_driver+0xea>
    3057:	48 b8 45 72 72 6f 72 	movabs $0x44203a726f727245,%rax
    305e:	3a 20 44 
    3061:	48 ba 4e 53 20 69 73 	movabs $0x6e7520736920534e,%rdx
    3068:	20 75 6e 
    306b:	49 89 04 24          	mov    %rax,(%r12)
    306f:	49 89 54 24 08       	mov    %rdx,0x8(%r12)
    3074:	48 b8 61 62 6c 65 20 	movabs $0x206f7420656c6261,%rax
    307b:	74 6f 20 
    307e:	48 ba 72 65 73 6f 6c 	movabs $0x2065766c6f736572,%rdx
    3085:	76 65 20 
    3088:	49 89 44 24 10       	mov    %rax,0x10(%r12)
    308d:	49 89 54 24 18       	mov    %rdx,0x18(%r12)
    3092:	48 b8 73 65 72 76 65 	movabs $0x6120726576726573,%rax
    3099:	72 20 61 
    309c:	49 89 44 24 20       	mov    %rax,0x20(%r12)
    30a1:	41 c7 44 24 28 64 64 	movl   $0x65726464,0x28(%r12)
    30a8:	72 65 
    30aa:	66 41 c7 44 24 2c 73 	movw   $0x7373,0x2c(%r12)
    30b1:	73 
    30b2:	41 c6 44 24 2e 00    	movb   $0x0,0x2e(%r12)
    30b8:	89 df                	mov    %ebx,%edi
    30ba:	e8 61 de ff ff       	callq  f20 <close@plt>
    30bf:	b8 ff ff ff ff       	mov    $0xffffffff,%eax
    30c4:	e9 1e ff ff ff       	jmpq   2fe7 <init_driver+0xea>
    30c9:	48 b8 45 72 72 6f 72 	movabs $0x55203a726f727245,%rax
    30d0:	3a 20 55 
    30d3:	48 ba 6e 61 62 6c 65 	movabs $0x6f7420656c62616e,%rdx
    30da:	20 74 6f 
    30dd:	49 89 04 24          	mov    %rax,(%r12)
    30e1:	49 89 54 24 08       	mov    %rdx,0x8(%r12)
    30e6:	48 b8 20 63 6f 6e 6e 	movabs $0x7463656e6e6f6320,%rax
    30ed:	65 63 74 
    30f0:	48 ba 20 74 6f 20 73 	movabs $0x76726573206f7420,%rdx
    30f7:	65 72 76 
    30fa:	49 89 44 24 10       	mov    %rax,0x10(%r12)
    30ff:	49 89 54 24 18       	mov    %rdx,0x18(%r12)
    3104:	66 41 c7 44 24 20 65 	movw   $0x7265,0x20(%r12)
    310b:	72 
    310c:	41 c6 44 24 22 00    	movb   $0x0,0x22(%r12)
    3112:	89 df                	mov    %ebx,%edi
    3114:	e8 07 de ff ff       	callq  f20 <close@plt>
    3119:	b8 ff ff ff ff       	mov    $0xffffffff,%eax
    311e:	e9 c4 fe ff ff       	jmpq   2fe7 <init_driver+0xea>
    3123:	e8 b8 dd ff ff       	callq  ee0 <__stack_chk_fail@plt>

0000000000003128 <driver_post>:
    3128:	53                   	push   %rbx
    3129:	4c 89 cb             	mov    %r9,%rbx
    312c:	45 85 c0             	test   %r8d,%r8d
    312f:	75 18                	jne    3149 <driver_post+0x21>
    3131:	48 85 ff             	test   %rdi,%rdi
    3134:	74 05                	je     313b <driver_post+0x13>
    3136:	80 3f 00             	cmpb   $0x0,(%rdi)
    3139:	75 37                	jne    3172 <driver_post+0x4a>
    313b:	66 c7 03 4f 4b       	movw   $0x4b4f,(%rbx)
    3140:	c6 43 02 00          	movb   $0x0,0x2(%rbx)
    3144:	44 89 c0             	mov    %r8d,%eax
    3147:	5b                   	pop    %rbx
    3148:	c3                   	retq   
    3149:	48 89 ca             	mov    %rcx,%rdx
    314c:	48 8d 35 09 09 00 00 	lea    0x909(%rip),%rsi        # 3a5c <trans_char+0xcc>
    3153:	bf 01 00 00 00       	mov    $0x1,%edi
    3158:	b8 00 00 00 00       	mov    $0x0,%eax
    315d:	e8 7e de ff ff       	callq  fe0 <__printf_chk@plt>
    3162:	66 c7 03 4f 4b       	movw   $0x4b4f,(%rbx)
    3167:	c6 43 02 00          	movb   $0x0,0x2(%rbx)
    316b:	b8 00 00 00 00       	mov    $0x0,%eax
    3170:	eb d5                	jmp    3147 <driver_post+0x1f>
    3172:	48 83 ec 08          	sub    $0x8,%rsp
    3176:	41 51                	push   %r9
    3178:	49 89 c9             	mov    %rcx,%r9
    317b:	49 89 d0             	mov    %rdx,%r8
    317e:	48 89 f9             	mov    %rdi,%rcx
    3181:	48 89 f2             	mov    %rsi,%rdx
    3184:	be 9a 3c 00 00       	mov    $0x3c9a,%esi
    3189:	48 8d 3d bc 03 00 00 	lea    0x3bc(%rip),%rdi        # 354c <_IO_stdin_used+0x2dc>
    3190:	e8 b9 f5 ff ff       	callq  274e <submitr>
    3195:	48 83 c4 10          	add    $0x10,%rsp
    3199:	eb ac                	jmp    3147 <driver_post+0x1f>

000000000000319b <check>:
    319b:	89 f8                	mov    %edi,%eax
    319d:	c1 e8 1c             	shr    $0x1c,%eax
    31a0:	85 c0                	test   %eax,%eax
    31a2:	74 1d                	je     31c1 <check+0x26>
    31a4:	b9 00 00 00 00       	mov    $0x0,%ecx
    31a9:	83 f9 1f             	cmp    $0x1f,%ecx
    31ac:	7f 0d                	jg     31bb <check+0x20>
    31ae:	89 f8                	mov    %edi,%eax
    31b0:	d3 e8                	shr    %cl,%eax
    31b2:	3c 0a                	cmp    $0xa,%al
    31b4:	74 11                	je     31c7 <check+0x2c>
    31b6:	83 c1 08             	add    $0x8,%ecx
    31b9:	eb ee                	jmp    31a9 <check+0xe>
    31bb:	b8 01 00 00 00       	mov    $0x1,%eax
    31c0:	c3                   	retq   
    31c1:	b8 00 00 00 00       	mov    $0x0,%eax
    31c6:	c3                   	retq   
    31c7:	b8 00 00 00 00       	mov    $0x0,%eax
    31cc:	c3                   	retq   

00000000000031cd <gencookie>:
    31cd:	53                   	push   %rbx
    31ce:	83 c7 01             	add    $0x1,%edi
    31d1:	e8 ba dc ff ff       	callq  e90 <srandom@plt>
    31d6:	e8 c5 dd ff ff       	callq  fa0 <random@plt>
    31db:	89 c3                	mov    %eax,%ebx
    31dd:	89 c7                	mov    %eax,%edi
    31df:	e8 b7 ff ff ff       	callq  319b <check>
    31e4:	85 c0                	test   %eax,%eax
    31e6:	74 ee                	je     31d6 <gencookie+0x9>
    31e8:	89 d8                	mov    %ebx,%eax
    31ea:	5b                   	pop    %rbx
    31eb:	c3                   	retq   
    31ec:	0f 1f 40 00          	nopl   0x0(%rax)

00000000000031f0 <__libc_csu_init>:
    31f0:	41 57                	push   %r15
    31f2:	41 56                	push   %r14
    31f4:	49 89 d7             	mov    %rdx,%r15
    31f7:	41 55                	push   %r13
    31f9:	41 54                	push   %r12
    31fb:	4c 8d 25 b6 1a 20 00 	lea    0x201ab6(%rip),%r12        # 204cb8 <__frame_dummy_init_array_entry>
    3202:	55                   	push   %rbp
    3203:	48 8d 2d b6 1a 20 00 	lea    0x201ab6(%rip),%rbp        # 204cc0 <__init_array_end>
    320a:	53                   	push   %rbx
    320b:	41 89 fd             	mov    %edi,%r13d
    320e:	49 89 f6             	mov    %rsi,%r14
    3211:	4c 29 e5             	sub    %r12,%rbp
    3214:	48 83 ec 08          	sub    $0x8,%rsp
    3218:	48 c1 fd 03          	sar    $0x3,%rbp
    321c:	e8 1f dc ff ff       	callq  e40 <_init>
    3221:	48 85 ed             	test   %rbp,%rbp
    3224:	74 20                	je     3246 <__libc_csu_init+0x56>
    3226:	31 db                	xor    %ebx,%ebx
    3228:	0f 1f 84 00 00 00 00 	nopl   0x0(%rax,%rax,1)
    322f:	00 
    3230:	4c 89 fa             	mov    %r15,%rdx
    3233:	4c 89 f6             	mov    %r14,%rsi
    3236:	44 89 ef             	mov    %r13d,%edi
    3239:	41 ff 14 dc          	callq  *(%r12,%rbx,8)
    323d:	48 83 c3 01          	add    $0x1,%rbx
    3241:	48 39 dd             	cmp    %rbx,%rbp
    3244:	75 ea                	jne    3230 <__libc_csu_init+0x40>
    3246:	48 83 c4 08          	add    $0x8,%rsp
    324a:	5b                   	pop    %rbx
    324b:	5d                   	pop    %rbp
    324c:	41 5c                	pop    %r12
    324e:	41 5d                	pop    %r13
    3250:	41 5e                	pop    %r14
    3252:	41 5f                	pop    %r15
    3254:	c3                   	retq   
    3255:	90                   	nop
    3256:	66 2e 0f 1f 84 00 00 	nopw   %cs:0x0(%rax,%rax,1)
    325d:	00 00 00 

0000000000003260 <__libc_csu_fini>:
    3260:	f3 c3                	repz retq 

Disassembly of section .fini:

0000000000003264 <_fini>:
    3264:	48 83 ec 08          	sub    $0x8,%rsp
    3268:	48 83 c4 08          	add    $0x8,%rsp
    326c:	c3                   	retq   
